
servo.elf:     file format elf32-pic30

Disassembly of section .reset:

00000000 <.reset>:
   0:	10 11 04    	goto      0x1110 <__resetPRI>
   2:	00 00 00 
Disassembly of section .text:

00001110 <__resetPRI>:
    1110:	ef d4 20    	mov.w     #0xd4e, w15
    1112:	0e ff 27    	mov.w     #0x7ff0, w14
    1114:	0e 01 88    	mov.w     w14, 0x20
    1116:	00 00 00    	nop       
    1118:	0c 00 07    	rcall     0x1132 <__psv_init>
    111a:	40 52 24    	mov.w     #0x4524, w0
    111c:	01 00 20    	mov.w     #0x0, w1
    111e:	0f 00 07    	rcall     0x113e <__data_init>
    1120:	00 00 20    	mov.w     #0x0, w0
    1122:	00 00 e0    	cp0.w     w0
    1124:	02 00 32    	bra       Z, 0x112a <L11>
    1126:	00 00 02    	call      0x0 <__DEFAULT_VECTOR-0x110c>
    1128:	00 00 00 

0000112a <L11>:
    112a:	24 46 02    	call      0x4624 <_main>
    112c:	00 00 00 
    112e:	00 40 da    	.pword 0xda4000
    1130:	00 00 fe    	reset     

00001132 <__psv_init>:
    1132:	80 05 20    	mov.w     #0x58, w0
    1134:	00 00 e0    	cp0.w     w0
    1136:	02 00 32    	bra       Z, 0x113c <L12>
    1138:	00 20 20    	mov.w     #0x200, w0
    113a:	90 01 88    	mov.w     w0, 0x32

0000113c <L12>:
    113c:	00 00 06    	return    

0000113e <__data_init>:
    113e:	a1 02 88    	mov.w     w1, 0x54
    1140:	80 00 78    	mov.w     w0, w1
    1142:	00 00 eb    	clr.w     w0
    1144:	1a 00 37    	bra       0x117a <L41>

00001146 <L11>:
    1146:	e2 80 40    	add.w     w1, #0x2, w1
    1148:	54 a0 b4    	addc.w    0x54
    114a:	91 01 ba    	tblrdl.w  [w1], w3
    114c:	e2 80 40    	add.w     w1, #0x2, w1
    114e:	54 a0 b4    	addc.w    0x54
    1150:	91 02 ba    	tblrdl.w  [w1], w5
    1152:	e2 80 40    	add.w     w1, #0x2, w1
    1154:	54 a0 b4    	addc.w    0x54
    1156:	00 02 eb    	clr.w     w4
    1158:	47 2b de    	lsr.w     w5, #0x7, w6
    115a:	f5 07 b2    	and.w     #0x7f, w5
    115c:	a6 01 88    	mov.w     w6, 0x34
    115e:	60 2c e1    	cp.b      w5, #0x0
    1160:	08 00 3a    	bra       NZ, 0x1172 <L21>

00001162 <L91>:
    1162:	00 49 eb    	clr.b     [w2]
    1164:	02 01 e8    	inc.w     w2, w2
    1166:	02 00 39    	bra       NC, 0x116c <L81>
    1168:	34 20 ec    	inc.w     0x34
    116a:	02 f0 a0    	bset.w    w2, #0xf

0000116c <L81>:
    116c:	83 01 e9    	dec.w     w3, w3
    116e:	f9 ff 3e    	bra       GTU, 0x1162 <L91>
    1170:	04 00 37    	bra       0x117a <L41>

00001172 <L21>:
    1172:	61 28 e1    	cp.w      w5, #0x1
    1174:	01 00 32    	bra       Z, 0x1178 <L31>
    1176:	00 82 eb    	setm.w    w4

00001178 <L31>:
    1178:	04 00 07    	rcall     0x1182 <L12>

0000117a <L41>:
    117a:	11 01 ba    	tblrdl.w  [w1], w2
    117c:	02 00 e0    	cp0.w     w2
    117e:	e3 ff 3a    	bra       NZ, 0x1146 <L11>
    1180:	00 00 06    	return    

00001182 <L12>:
    1182:	04 d0 a3    	btst.c    w4, #0xd
    1184:	e2 0f 49    	addc.w    w2, #0x2, [w15]
    1186:	1c 00 39    	bra       NC, 0x11c0 <L22>
    1188:	81 02 78    	mov.w     w1, w5
    118a:	35 49 ba    	tblrdl.b  [w5++], [w2]
    118c:	02 01 e8    	inc.w     w2, w2
    118e:	02 00 39    	bra       NC, 0x1194 <L32>
    1190:	34 20 ec    	inc.w     0x34
    1192:	02 f0 a0    	bset.w    w2, #0xf

00001194 <L32>:
    1194:	83 01 e9    	dec.w     w3, w3
    1196:	0f 00 32    	bra       Z, 0x11b6 <L42>
    1198:	25 49 ba    	tblrdl.b  [w5--], [w2]
    119a:	02 01 e8    	inc.w     w2, w2
    119c:	02 00 39    	bra       NC, 0x11a2 <L33>
    119e:	34 20 ec    	inc.w     0x34
    11a0:	02 f0 a0    	bset.w    w2, #0xf

000011a2 <L33>:
    11a2:	83 01 e9    	dec.w     w3, w3
    11a4:	08 00 32    	bra       Z, 0x11b6 <L42>
    11a6:	04 00 e0    	cp0.w     w4
    11a8:	06 00 32    	bra       Z, 0x11b6 <L42>
    11aa:	15 c9 ba    	tblrdh.b  [w5], [w2]
    11ac:	02 01 e8    	inc.w     w2, w2
    11ae:	02 00 39    	bra       NC, 0x11b4 <L34>
    11b0:	34 20 ec    	inc.w     0x34
    11b2:	02 f0 a0    	bset.w    w2, #0xf

000011b4 <L34>:
    11b4:	83 01 e9    	dec.w     w3, w3

000011b6 <L42>:
    11b6:	81 80 e8    	inc2.w    w1, w1
    11b8:	54 a0 b4    	addc.w    0x54
    11ba:	03 00 e0    	cp0.w     w3
    11bc:	e2 ff 3a    	bra       NZ, 0x1182 <L12>
    11be:	00 00 06    	return    

000011c0 <L22>:
    11c0:	91 02 ba    	tblrdl.w  [w1], w5
    11c2:	05 59 78    	mov.b     w5, [w2++]
    11c4:	83 01 e9    	dec.w     w3, w3
    11c6:	f7 ff 32    	bra       Z, 0x11b6 <L42>
    11c8:	c8 2a de    	lsr.w     w5, #0x8, w5
    11ca:	05 59 78    	mov.b     w5, [w2++]
    11cc:	83 01 e9    	dec.w     w3, w3
    11ce:	f3 ff 32    	bra       Z, 0x11b6 <L42>
    11d0:	04 00 e0    	cp0.w     w4
    11d2:	f1 ff 32    	bra       Z, 0x11b6 <L42>
    11d4:	11 d9 ba    	tblrdh.b  [w1], [w2++]
    11d6:	ee ff 37    	bra       0x11b4 <L34>

000011d8 <.handle>:
    11d8:	2e 27 04    	goto      0x272e <___putc_nobuffer>
    11da:	00 00 00 
    11dc:	70 27 04    	goto      0x2770 <___putc_buffer>
    11de:	00 00 00 
    11e0:	52 27 04    	goto      0x2752 <___getc_nobuffer>
    11e2:	00 00 00 
    11e4:	62 28 04    	goto      0x2862 <___getc_buffer>
    11e6:	00 00 00 
    11e8:	e0 39 04    	goto      0x39e0 <___digitalRead>
    11ea:	00 00 00 
    11ec:	9c 39 04    	goto      0x399c <___digitalWrite>
    11ee:	00 00 00 
    11f0:	00 3a 04    	goto      0x3a00 <___analogRead>
    11f2:	00 00 00 
    11f4:	8e 3e 04    	goto      0x3e8e <___pwmWrite>
    11f6:	00 00 00 
    11f8:	60 3e 04    	goto      0x3e60 <___pwmRead>
    11fa:	00 00 00 
    11fc:	f8 3e 04    	goto      0x3ef8 <___servoWrite>
    11fe:	00 00 00 
    1200:	c6 3e 04    	goto      0x3ec6 <___servoRead>
    1202:	00 00 00 

00001204 <_isalpha>:
    1204:	10 04 b1    	sub.w     #0x41, w0
    1206:	07 00 35    	bra       LT, 0x1216 <nomatch>
    1208:	90 01 b1    	sub.w     #0x19, w0
    120a:	04 00 34    	bra       LE, 0x1214 <match>
    120c:	70 00 b1    	sub.w     #0x7, w0
    120e:	03 00 35    	bra       LT, 0x1216 <nomatch>
    1210:	90 01 b1    	sub.w     #0x19, w0
    1212:	01 00 3c    	bra       GT, 0x1216 <nomatch>

00001214 <match>:
    1214:	10 00 05    	retlw.w   #0x1, w0

00001216 <nomatch>:
    1216:	00 00 05    	retlw.w   #0x0, w0

00001218 <_isspace>:
    1218:	69 00 e1    	cp.w      w0, #0x9
    121a:	04 00 35    	bra       LT, 0x1224 <nomatch>
    121c:	6d 00 e1    	cp.w      w0, #0xd
    121e:	03 00 34    	bra       LE, 0x1226 <match>
    1220:	00 02 b1    	sub.w     #0x20, w0
    1222:	01 00 32    	bra       Z, 0x1226 <match>

00001224 <nomatch>:
    1224:	00 00 05    	retlw.w   #0x0, w0

00001226 <match>:
    1226:	10 00 05    	retlw.w   #0x1, w0

00001228 <_isupper>:
    1228:	10 04 b1    	sub.w     #0x41, w0
    122a:	03 00 35    	bra       LT, 0x1232 <nomatch>
    122c:	90 01 b1    	sub.w     #0x19, w0
    122e:	01 00 3c    	bra       GT, 0x1232 <nomatch>

00001230 <match>:
    1230:	10 00 05    	retlw.w   #0x1, w0

00001232 <nomatch>:
    1232:	00 00 05    	retlw.w   #0x0, w0

00001234 <_tolower>:
    1234:	80 00 78    	mov.w     w0, w1
    1236:	11 04 b1    	sub.w     #0x41, w1
    1238:	03 00 35    	bra       LT, 0x1240 <nomatch>
    123a:	91 01 b1    	sub.w     #0x19, w1
    123c:	01 00 3c    	bra       GT, 0x1240 <nomatch>

0000123e <match>:
    123e:	00 50 a0    	bset.w    w0, #0x5

00001240 <nomatch>:
    1240:	00 00 06    	return    

00001242 <___subsf3>:
    1242:	03 f0 a2    	btg.w     w3, #0xf

00001244 <___addsf3>:
    1244:	88 9f be    	mov.d     w8, [w15++]
    1246:	8a 9f be    	mov.d     w10, [w15++]
    1248:	8c 1f 78    	mov.w     w12, [w15++]
    124a:	f7 00 07    	rcall     0x143a <__funpack2>
    124c:	fe 00 33    	bra       N, 0x144a <__fPropagateNaN>
    124e:	64 50 e1    	cp.w      w10, #0x4
    1250:	4f 00 32    	bra       Z, 0x12f0 <aisinfinite>

00001252 <checkspecialb>:
    1252:	64 20 e1    	cp.w      w4, #0x4
    1254:	52 00 32    	bra       Z, 0x12fa <return2>
    1256:	03 82 6c    	xor.w     w9, w3, w4
    1258:	07 00 3b    	bra       NN, 0x1268 <getsign>
    125a:	09 05 d0    	sl.w      w9, w10
    125c:	03 06 d0    	sl.w      w3, w12
    125e:	82 0f 54    	sub.w     w8, w2, [w15]
    1260:	0c 06 5d    	subb.w    w10, w12, w12
    1262:	02 00 39    	bra       NC, 0x1268 <getsign>
    1264:	02 00 32    	bra       Z, 0x126a <gotsign>
    1266:	89 01 78    	mov.w     w9, w3

00001268 <getsign>:
    1268:	03 06 78    	mov.w     w3, w12

0000126a <gotsign>:
    126a:	85 82 55    	sub.w     w11, w5, w5
    126c:	04 00 3d    	bra       GE, 0x1276 <expcanonical>
    126e:	00 03 fd    	exch      w0, w6
    1270:	81 03 fd    	exch      w1, w7
    1272:	85 02 ea    	neg.w     w5, w5
    1274:	8b 85 42    	add.w     w5, w11, w11

00001276 <expcanonical>:
    1276:	84 0f 72    	ior.w     w4, w4, [w15]
    1278:	02 00 3b    	bra       NN, 0x127e <nonegate>
    127a:	60 00 10    	subr.w    w0, #0x0, w0
    127c:	e0 80 18    	subbr.w   w1, #0x0, w1

0000127e <nonegate>:
    127e:	60 11 b8    	mul.uu    w2, #0x0, w2
    1280:	00 05 eb    	clr.w     w10
    1282:	7a 28 e1    	cp.w      w5, #0x1a
    1284:	0a 00 39    	bra       NC, 0x129a <aligniter>
    1286:	06 00 78    	mov.w     w6, w0
    1288:	c7 5d dd    	sl.w      w11, #0x7, w11
    128a:	f7 07 b2    	and.w     #0x7f, w7
    128c:	87 80 75    	ior.w     w11, w7, w1
    128e:	2d 00 37    	bra       0x12ea <signoff>

00001290 <align>:
    1290:	82 81 71    	ior.w     w3, w2, w3
    1292:	0a 01 78    	mov.w     w10, w2
    1294:	61 05 60    	and.w     w0, #0x1, w10
    1296:	81 80 d1    	asr.w     w1, w1
    1298:	00 80 d3    	rrc.w     w0, w0

0000129a <aligniter>:
    129a:	85 02 e9    	dec.w     w5, w5
    129c:	f9 ff 3b    	bra       NN, 0x1290 <align>

0000129e <aligned>:
    129e:	06 04 40    	add.w     w0, w6, w8
    12a0:	87 84 48    	addc.w    w1, w7, w9
    12a2:	02 00 3b    	bra       NN, 0x12a8 <normalizesum>
    12a4:	60 04 14    	subr.w    w8, #0x0, w8
    12a6:	e0 84 1c    	subbr.w   w9, #0x0, w9

000012a8 <normalizesum>:
    12a8:	09 88 a3    	btst.z    w9, #0x8
    12aa:	07 00 32    	bra       Z, 0x12ba <checknormal>
    12ac:	8a 81 71    	ior.w     w3, w10, w3
    12ae:	82 81 71    	ior.w     w3, w2, w3
    12b0:	61 01 64    	and.w     w8, #0x1, w2
    12b2:	89 04 d1    	lsr.w     w9, w9
    12b4:	08 84 d3    	rrc.w     w8, w8
    12b6:	8b 05 e8    	inc.w     w11, w11
    12b8:	17 00 37    	bra       0x12e8 <round>

000012ba <checknormal>:
    12ba:	09 78 a3    	btst.z    w9, #0x7
    12bc:	13 00 3a    	bra       NZ, 0x12e4 <discardguard>

000012be <underflow>:
    12be:	0b 00 e0    	cp0.w     w11
    12c0:	13 00 34    	bra       LE, 0x12e8 <round>
    12c2:	8b 05 e9    	dec.w     w11, w11
    12c4:	08 04 44    	add.w     w8, w8, w8
    12c6:	89 84 4c    	addc.w    w9, w9, w9
    12c8:	0a 44 74    	ior.b     w8, w10, w8
    12ca:	09 78 a3    	btst.z    w9, #0x7
    12cc:	0d 00 3a    	bra       NZ, 0x12e8 <round>

000012ce <normalizeloop>:
    12ce:	0b 00 e0    	cp0.w     w11
    12d0:	07 00 34    	bra       LE, 0x12e0 <normalizeexit>
    12d2:	8b 05 e9    	dec.w     w11, w11
    12d4:	08 04 44    	add.w     w8, w8, w8
    12d6:	89 84 4c    	addc.w    w9, w9, w9
    12d8:	01 00 3a    	bra       NZ, 0x12dc <normalizetest>
    12da:	0b 00 20    	mov.w     #0x0, w11

000012dc <normalizetest>:
    12dc:	09 78 a3    	btst.z    w9, #0x7
    12de:	f7 ff 32    	bra       Z, 0x12ce <normalizeloop>

000012e0 <normalizeexit>:
    12e0:	00 01 eb    	clr.w     w2
    12e2:	02 00 37    	bra       0x12e8 <round>

000012e4 <discardguard>:
    12e4:	82 81 71    	ior.w     w3, w2, w3
    12e6:	0a 01 78    	mov.w     w10, w2

000012e8 <round>:
    12e8:	6d 00 07    	rcall     0x13c4 <__fpack>

000012ea <signoff>:
    12ea:	0c f0 a7    	btsc.w    w12, #0xf
    12ec:	01 f0 a0    	bset.w    w1, #0xf
    12ee:	b6 00 37    	bra       0x145c <__fbopExit>

000012f0 <aisinfinite>:
    12f0:	64 20 e1    	cp.w      w4, #0x4
    12f2:	02 00 3a    	bra       NZ, 0x12f8 <return8>
    12f4:	83 8f 6c    	xor.w     w9, w3, [w15]
    12f6:	b6 00 33    	bra       N, 0x1464 <__fbopReturnNaN>

000012f8 <return8>:
    12f8:	08 01 be    	mov.d     w8, w2

000012fa <return2>:
    12fa:	02 00 be    	mov.d     w2, w0
    12fc:	af 00 37    	bra       0x145c <__fbopExit>

000012fe <___divsf3>:
    12fe:	88 9f be    	mov.d     w8, [w15++]
    1300:	8a 9f be    	mov.d     w10, [w15++]
    1302:	8c 1f 78    	mov.w     w12, [w15++]
    1304:	9a 00 07    	rcall     0x143a <__funpack2>
    1306:	a1 00 33    	bra       N, 0x144a <__fPropagateNaN>
    1308:	03 86 6c    	xor.w     w9, w3, w12
    130a:	64 50 e1    	cp.w      w10, #0x4
    130c:	2e 00 32    	bra       Z, 0x136a <aisinfinite>
    130e:	64 20 e1    	cp.w      w4, #0x4
    1310:	33 00 32    	bra       Z, 0x1378 <returnZero>
    1312:	61 50 e1    	cp.w      w10, #0x1
    1314:	2f 00 32    	bra       Z, 0x1374 <aiszero>
    1316:	61 20 e1    	cp.w      w4, #0x1
    1318:	31 00 32    	bra       Z, 0x137c <returnInf>

0000131a <finitenonzero>:
    131a:	85 85 55    	sub.w     w11, w5, w11
    131c:	eb 07 b0    	add.w     #0x7e, w11
    131e:	09 00 20    	mov.w     #0x0, w9
    1320:	08 04 20    	mov.w     #0x40, w8
    1322:	05 00 37    	bra       0x132e <diventry>

00001324 <divnext>:
    1324:	08 04 44    	add.w     w8, w8, w8
    1326:	89 84 4c    	addc.w    w9, w9, w9
    1328:	0a 00 31    	bra       C, 0x133e <divdone>

0000132a <divloop>:
    132a:	06 03 43    	add.w     w6, w6, w6
    132c:	87 83 4b    	addc.w    w7, w7, w7

0000132e <diventry>:
    132e:	00 01 53    	sub.w     w6, w0, w2
    1330:	81 81 5b    	subb.w    w7, w1, w3
    1332:	f8 ff 33    	bra       N, 0x1324 <divnext>
    1334:	02 03 be    	mov.d     w2, w6
    1336:	08 00 a0    	bset.w    w8, #0x0
    1338:	08 04 44    	add.w     w8, w8, w8
    133a:	89 84 4c    	addc.w    w9, w9, w9
    133c:	f6 ff 39    	bra       NC, 0x132a <divloop>

0000133e <divdone>:
    133e:	c6 39 dd    	sl.w      w7, #0x6, w3
    1340:	83 01 73    	ior.w     w6, w3, w3
    1342:	01 00 32    	bra       Z, 0x1346 <stickyok>
    1344:	13 00 20    	mov.w     #0x1, w3

00001346 <stickyok>:
    1346:	89 04 d1    	lsr.w     w9, w9
    1348:	08 84 d3    	rrc.w     w8, w8
    134a:	09 98 a3    	btst.z    w9, #0x9
    134c:	05 00 32    	bra       Z, 0x1358 <guardused>
    134e:	08 00 a7    	btsc.w    w8, #0x0
    1350:	03 00 a0    	bset.w    w3, #0x0
    1352:	89 04 d1    	lsr.w     w9, w9
    1354:	08 84 d3    	rrc.w     w8, w8
    1356:	8b 05 e8    	inc.w     w11, w11

00001358 <guardused>:
    1358:	89 04 d1    	lsr.w     w9, w9
    135a:	08 84 d3    	rrc.w     w8, w8
    135c:	00 01 eb    	clr.w     w2
    135e:	02 81 d2    	rlc.w     w2, w2
    1360:	31 00 07    	rcall     0x13c4 <__fpack>

00001362 <return0>:
    1362:	01 f0 a1    	bclr.w    w1, #0xf
    1364:	0c f0 a7    	btsc.w    w12, #0xf
    1366:	01 f0 a0    	bset.w    w1, #0xf
    1368:	79 00 37    	bra       0x145c <__fbopExit>

0000136a <aisinfinite>:
    136a:	64 20 e1    	cp.w      w4, #0x4
    136c:	7b 00 32    	bra       Z, 0x1464 <__fbopReturnNaN>

0000136e <return8>:
    136e:	08 01 be    	mov.d     w8, w2

00001370 <return2>:
    1370:	02 00 be    	mov.d     w2, w0
    1372:	f7 ff 37    	bra       0x1362 <return0>

00001374 <aiszero>:
    1374:	61 20 e1    	cp.w      w4, #0x1
    1376:	76 00 32    	bra       Z, 0x1464 <__fbopReturnNaN>

00001378 <returnZero>:
    1378:	60 00 b8    	mul.uu    w0, #0x0, w0
    137a:	f3 ff 37    	bra       0x1362 <return0>

0000137c <returnInf>:
    137c:	00 00 20    	mov.w     #0x0, w0
    137e:	01 f8 27    	mov.w     #0x7f80, w1
    1380:	f0 ff 37    	bra       0x1362 <return0>

00001382 <___eqsf2>:
    1382:	14 00 20    	mov.w     #0x1, w4
    1384:	b6 00 37    	bra       0x14f2 <__fcompare>

00001386 <___gesf2>:
    1386:	f4 ff 2f    	mov.w     #0xffff, w4
    1388:	b4 00 37    	bra       0x14f2 <__fcompare>

0000138a <___fixunssfsi>:
    138a:	00 01 be    	mov.d     w0, w2
    138c:	41 00 07    	rcall     0x1410 <__funpack>
    138e:	04 70 a7    	btsc.w    w4, #0x7
    1390:	03 f0 a1    	bclr.w    w3, #0xf
    1392:	03 f8 a3    	btst.z    w3, #0xf
    1394:	13 00 3a    	bra       NZ, 0x13bc <returnzero>
    1396:	65 09 b1    	sub.w     #0x96, w5
    1398:	10 00 32    	bra       Z, 0x13ba <exit>
    139a:	09 00 35    	bra       LT, 0x13ae <shiftright>
    139c:	69 28 e1    	cp.w      w5, #0x9
    139e:	02 00 35    	bra       LT, 0x13a4 <shiftleft>
    13a0:	01 00 28    	mov.w     #0x8000, w1
    13a2:	00 00 05    	retlw.w   #0x0, w0

000013a4 <shiftleft>:
    13a4:	00 00 40    	add.w     w0, w0, w0
    13a6:	81 80 48    	addc.w    w1, w1, w1
    13a8:	85 02 e9    	dec.w     w5, w5
    13aa:	fc ff 3a    	bra       NZ, 0x13a4 <shiftleft>
    13ac:	00 00 06    	return    

000013ae <shiftright>:
    13ae:	f8 8f 42    	add.w     w5, #0x18, [w15]
    13b0:	05 00 35    	bra       LT, 0x13bc <returnzero>

000013b2 <shiftrightloop>:
    13b2:	81 00 d1    	lsr.w     w1, w1
    13b4:	00 80 d3    	rrc.w     w0, w0
    13b6:	85 02 e8    	inc.w     w5, w5
    13b8:	fc ff 3a    	bra       NZ, 0x13b2 <shiftrightloop>

000013ba <exit>:
    13ba:	00 00 06    	return    

000013bc <returnzero>:
    13bc:	80 00 eb    	clr.w     w1
    13be:	00 00 05    	retlw.w   #0x0, w0

000013c0 <___floatunsisf>:
    13c0:	60 11 b8    	mul.uu    w2, #0x0, w2
    13c2:	b2 00 37    	bra       0x1528 <___floatundisf>

000013c4 <__fpack>:
    13c4:	81 00 20    	mov.w     #0x8, w1
    13c6:	61 80 55    	sub.w     w11, #0x1, w0
    13c8:	0b 00 3d    	bra       GE, 0x13e0 <notsubnormal>
    13ca:	0b 00 20    	mov.w     #0x0, w11
    13cc:	61 fe 2f    	mov.w     #0xffe6, w1
    13ce:	01 00 e1    	cp.w      w0, w1
    13d0:	1d 00 34    	bra       LE, 0x140c <zerosig>

000013d2 <subnormal>:
    13d2:	82 81 71    	ior.w     w3, w2, w3
    13d4:	61 01 64    	and.w     w8, #0x1, w2
    13d6:	89 04 d1    	lsr.w     w9, w9
    13d8:	08 84 d3    	rrc.w     w8, w8
    13da:	00 00 e8    	inc.w     w0, w0
    13dc:	fa ff 3a    	bra       NZ, 0x13d2 <subnormal>
    13de:	71 00 20    	mov.w     #0x7, w1

000013e0 <notsubnormal>:
    13e0:	61 00 64    	and.w     w8, #0x1, w0
    13e2:	03 00 70    	ior.w     w0, w3, w0
    13e4:	02 00 60    	and.w     w0, w2, w0
    13e6:	09 00 32    	bra       Z, 0x13fa <packupandgo>
    13e8:	61 04 44    	add.w     w8, #0x1, w8
    13ea:	e0 84 4c    	addc.w    w9, #0x0, w9
    13ec:	09 88 a5    	btst.z    w9, w1
    13ee:	05 00 32    	bra       Z, 0x13fa <packupandgo>
    13f0:	8b 05 e8    	inc.w     w11, w11
    13f2:	68 08 e1    	cp.w      w1, #0x8
    13f4:	02 00 3a    	bra       NZ, 0x13fa <packupandgo>
    13f6:	89 04 d1    	lsr.w     w9, w9
    13f8:	08 84 d3    	rrc.w     w8, w8

000013fa <packupandgo>:
    13fa:	f2 0f 20    	mov.w     #0xff, w2
    13fc:	02 58 e1    	cp.w      w11, w2
    13fe:	05 00 3d    	bra       GE, 0x140a <overflow>
    1400:	c7 5d dd    	sl.w      w11, #0x7, w11
    1402:	f9 07 b2    	and.w     #0x7f, w9
    1404:	89 80 75    	ior.w     w11, w9, w1
    1406:	08 00 78    	mov.w     w8, w0
    1408:	00 00 06    	return    

0000140a <overflow>:
    140a:	0b f8 27    	mov.w     #0x7f80, w11

0000140c <zerosig>:
    140c:	8b 00 78    	mov.w     w11, w1
    140e:	00 00 05    	retlw.w   #0x0, w0

00001410 <__funpack>:
    1410:	c7 0a de    	lsr.w     w1, #0x7, w5
    1412:	f1 07 b2    	and.w     #0x7f, w1
    1414:	f5 0f b2    	and.w     #0xff, w5
    1416:	08 00 32    	bra       Z, 0x1428 <zeroorsub>
    1418:	e1 cf 42    	add.b     w5, #0x1, [w15]
    141a:	02 00 32    	bra       Z, 0x1420 <nanorinf>

0000141c <finitereturn>:
    141c:	01 70 a0    	bset.w    w1, #0x7
    141e:	24 00 05    	retlw.w   #0x2, w4

00001420 <nanorinf>:
    1420:	81 0f 70    	ior.w     w0, w1, [w15]
    1422:	01 00 32    	bra       Z, 0x1426 <infinite>
    1424:	04 08 05    	retlw.w   #0x80, w4

00001426 <infinite>:
    1426:	44 00 05    	retlw.w   #0x4, w4

00001428 <zeroorsub>:
    1428:	81 0f 70    	ior.w     w0, w1, [w15]
    142a:	02 00 3a    	bra       NZ, 0x1430 <subnormal>
    142c:	14 00 05    	retlw.w   #0x1, w4

0000142e <normalize>:
    142e:	85 02 e9    	dec.w     w5, w5

00001430 <subnormal>:
    1430:	00 00 40    	add.w     w0, w0, w0
    1432:	81 c0 48    	addc.b    w1, w1, w1
    1434:	fc ff 3b    	bra       NN, 0x142e <normalize>
    1436:	01 70 a0    	bset.w    w1, #0x7
    1438:	24 00 05    	retlw.w   #0x2, w4

0000143a <__funpack2>:
    143a:	00 04 be    	mov.d     w0, w8
    143c:	e9 ff 07    	rcall     0x1410 <__funpack>
    143e:	00 03 be    	mov.d     w0, w6
    1440:	04 05 be    	mov.d     w4, w10
    1442:	02 00 be    	mov.d     w2, w0
    1444:	e5 ff 07    	rcall     0x1410 <__funpack>
    1446:	84 4f 75    	ior.b     w10, w4, [w15]
    1448:	00 00 06    	return    

0000144a <__fPropagateNaN>:
    144a:	02 00 be    	mov.d     w2, w0
    144c:	64 50 e1    	cp.w      w10, #0x4
    144e:	05 00 36    	bra       LEU, 0x145a <return0>
    1450:	64 20 e1    	cp.w      w4, #0x4
    1452:	02 00 36    	bra       LEU, 0x1458 <return8>
    1454:	09 68 a3    	btst.z    w9, #0x6
    1456:	01 00 3a    	bra       NZ, 0x145a <return0>

00001458 <return8>:
    1458:	08 00 be    	mov.d     w8, w0

0000145a <return0>:
    145a:	01 60 a0    	bset.w    w1, #0x6

0000145c <__fbopExit>:
    145c:	4f 06 78    	mov.w     [--w15], w12
    145e:	4f 05 be    	mov.d     [--w15], w10
    1460:	4f 04 be    	mov.d     [--w15], w8
    1462:	00 00 06    	return    

00001464 <__fbopReturnNaN>:
    1464:	f0 ff 2f    	mov.w     #0xffff, w0
    1466:	f1 ff 27    	mov.w     #0x7fff, w1
    1468:	f9 ff 37    	bra       0x145c <__fbopExit>

0000146a <___mulsf3>:
    146a:	88 9f be    	mov.d     w8, [w15++]
    146c:	8a 9f be    	mov.d     w10, [w15++]
    146e:	8c 1f 78    	mov.w     w12, [w15++]
    1470:	e4 ff 07    	rcall     0x143a <__funpack2>
    1472:	eb ff 33    	bra       N, 0x144a <__fPropagateNaN>
    1474:	03 86 6c    	xor.w     w9, w3, w12
    1476:	64 50 e1    	cp.w      w10, #0x4
    1478:	24 00 32    	bra       Z, 0x14c2 <aisinfinite>
    147a:	64 20 e1    	cp.w      w4, #0x4
    147c:	27 00 32    	bra       Z, 0x14cc <bisinfinite>
    147e:	61 50 e1    	cp.w      w10, #0x1
    1480:	22 00 32    	bra       Z, 0x14c6 <return8>
    1482:	61 20 e1    	cp.w      w4, #0x1
    1484:	21 00 32    	bra       Z, 0x14c8 <return2>
    1486:	8b 85 42    	add.w     w5, w11, w11
    1488:	eb 07 b1    	sub.w     #0x7e, w11
    148a:	01 34 b8    	mul.uu    w6, w1, w8
    148c:	00 3a b8    	mul.uu    w7, w0, w4
    148e:	08 04 42    	add.w     w4, w8, w8
    1490:	89 84 4a    	addc.w    w5, w9, w9
    1492:	01 3a b8    	mul.uu    w7, w1, w4
    1494:	00 30 b8    	mul.uu    w6, w0, w0
    1496:	88 80 40    	add.w     w1, w8, w1
    1498:	09 01 4a    	addc.w    w4, w9, w2
    149a:	04 00 33    	bra       N, 0x14a4 <formsticky>
    149c:	00 00 40    	add.w     w0, w0, w0
    149e:	81 80 48    	addc.w    w1, w1, w1
    14a0:	02 01 49    	addc.w    w2, w2, w2
    14a2:	8b 05 e9    	dec.w     w11, w11

000014a4 <formsticky>:
    14a4:	c9 09 dd    	sl.w      w1, #0x9, w3
    14a6:	83 01 70    	ior.w     w0, w3, w3
    14a8:	01 00 32    	bra       Z, 0x14ac <formRandSig>
    14aa:	13 00 20    	mov.w     #0x1, w3

000014ac <formRandSig>:
    14ac:	c8 14 de    	lsr.w     w2, #0x8, w9
    14ae:	48 14 dd    	sl.w      w2, #0x8, w8
    14b0:	47 09 de    	lsr.w     w1, #0x7, w2
    14b2:	12 00 b2    	and.w     #0x1, w2
    14b4:	c8 08 de    	lsr.w     w1, #0x8, w1
    14b6:	08 84 70    	ior.w     w1, w8, w8
    14b8:	85 ff 07    	rcall     0x13c4 <__fpack>

000014ba <return0>:
    14ba:	01 f0 a1    	bclr.w    w1, #0xf
    14bc:	0c f0 a7    	btsc.w    w12, #0xf
    14be:	01 f0 a0    	bset.w    w1, #0xf
    14c0:	cd ff 37    	bra       0x145c <__fbopExit>

000014c2 <aisinfinite>:
    14c2:	61 20 e1    	cp.w      w4, #0x1
    14c4:	cf ff 32    	bra       Z, 0x1464 <__fbopReturnNaN>

000014c6 <return8>:
    14c6:	08 01 be    	mov.d     w8, w2

000014c8 <return2>:
    14c8:	02 00 be    	mov.d     w2, w0
    14ca:	f7 ff 37    	bra       0x14ba <return0>

000014cc <bisinfinite>:
    14cc:	61 50 e1    	cp.w      w10, #0x1
    14ce:	fc ff 3a    	bra       NZ, 0x14c8 <return2>
    14d0:	c9 ff 37    	bra       0x1464 <__fbopReturnNaN>

000014d2 <___udivsi3>:
    14d2:	60 22 b8    	mul.uu    w4, #0x0, w4
    14d4:	06 02 20    	mov.w     #0x20, w6

000014d6 <nextbit>:
    14d6:	00 00 d0    	sl.w      w0, w0
    14d8:	81 80 d2    	rlc.w     w1, w1
    14da:	04 82 d2    	rlc.w     w4, w4
    14dc:	85 82 d2    	rlc.w     w5, w5
    14de:	00 00 a0    	bset.w    w0, #0x0
    14e0:	02 02 52    	sub.w     w4, w2, w4
    14e2:	83 82 5a    	subb.w    w5, w3, w5
    14e4:	03 00 31    	bra       C, 0x14ec <iterate>
    14e6:	02 02 42    	add.w     w4, w2, w4
    14e8:	83 82 4a    	addc.w    w5, w3, w5
    14ea:	00 00 a1    	bclr.w    w0, #0x0

000014ec <iterate>:
    14ec:	06 03 e9    	dec.w     w6, w6
    14ee:	f3 ff 3a    	bra       NZ, 0x14d6 <nextbit>
    14f0:	00 00 06    	return    

000014f2 <__fcompare>:
    14f2:	88 9f be    	mov.d     w8, [w15++]
    14f4:	8a 9f be    	mov.d     w10, [w15++]
    14f6:	84 1f 78    	mov.w     w4, [w15++]
    14f8:	a0 ff 07    	rcall     0x143a <__funpack2>
    14fa:	4f 00 78    	mov.w     [--w15], w0
    14fc:	11 00 33    	bra       N, 0x1520 <exit>
    14fe:	f0 ff 2f    	mov.w     #0xffff, w0
    1500:	83 8f 6c    	xor.w     w9, w3, [w15]
    1502:	06 00 3b    	bra       NN, 0x1510 <comparemag>
    1504:	04 05 65    	and.w     w10, w4, w10
    1506:	0a 00 a7    	btsc.w    w10, #0x0
    1508:	08 00 37    	bra       0x151a <returnEqual>
    150a:	09 f0 a6    	btss.w    w9, #0xf
    150c:	10 00 20    	mov.w     #0x1, w0
    150e:	08 00 37    	bra       0x1520 <exit>

00001510 <comparemag>:
    1510:	82 0f 54    	sub.w     w8, w2, [w15]
    1512:	83 8f 5c    	subb.w    w9, w3, [w15]
    1514:	03 00 39    	bra       NC, 0x151c <adjust>
    1516:	10 00 20    	mov.w     #0x1, w0
    1518:	01 00 3e    	bra       GTU, 0x151c <adjust>

0000151a <returnEqual>:
    151a:	00 00 20    	mov.w     #0x0, w0

0000151c <adjust>:
    151c:	09 f0 a7    	btsc.w    w9, #0xf
    151e:	00 00 ea    	neg.w     w0, w0

00001520 <exit>:
    1520:	4f 05 be    	mov.d     [--w15], w10
    1522:	4f 04 be    	mov.d     [--w15], w8
    1524:	00 00 e0    	cp0.w     w0
    1526:	00 00 06    	return    

00001528 <___floatundisf>:
    1528:	88 9f be    	mov.d     w8, [w15++]
    152a:	8a 9f be    	mov.d     w10, [w15++]
    152c:	00 82 70    	ior.w     w1, w0, w4
    152e:	04 02 71    	ior.w     w2, w4, w4
    1530:	04 82 71    	ior.w     w3, w4, w4
    1532:	26 00 32    	bra       Z, 0x1580 <return0>
    1534:	00 04 be    	mov.d     w0, w8
    1536:	02 00 be    	mov.d     w2, w0
    1538:	60 11 b8    	mul.uu    w2, #0x0, w2
    153a:	6b 09 20    	mov.w     #0x96, w11
    153c:	95 02 20    	mov.w     #0x29, w5
    153e:	01 82 cf    	ff1l      w1, w4
    1540:	0a 00 39    	bra       NC, 0x1556 <fixshift>
    1542:	05 41 b1    	sub.b     #0x10, w5
    1544:	00 82 cf    	ff1l      w0, w4
    1546:	07 00 39    	bra       NC, 0x1556 <fixshift>
    1548:	05 41 b1    	sub.b     #0x10, w5
    154a:	09 82 cf    	ff1l      w9, w4
    154c:	04 00 39    	bra       NC, 0x1556 <fixshift>
    154e:	05 41 b1    	sub.b     #0x10, w5
    1550:	08 82 cf    	ff1l      w8, w4
    1552:	01 00 39    	bra       NC, 0x1556 <fixshift>
    1554:	05 41 b1    	sub.b     #0x10, w5

00001556 <fixshift>:
    1556:	05 42 52    	sub.b     w4, w5, w4
    1558:	12 00 32    	bra       Z, 0x157e <round>
    155a:	0a 00 3b    	bra       NN, 0x1570 <shiftleft>

0000155c <shiftright>:
    155c:	82 81 71    	ior.w     w3, w2, w3
    155e:	61 01 64    	and.w     w8, #0x1, w2
    1560:	81 00 d1    	lsr.w     w1, w1
    1562:	00 80 d3    	rrc.w     w0, w0
    1564:	89 84 d3    	rrc.w     w9, w9
    1566:	08 84 d3    	rrc.w     w8, w8
    1568:	8b 05 e8    	inc.w     w11, w11
    156a:	04 42 e8    	inc.b     w4, w4
    156c:	f7 ff 3a    	bra       NZ, 0x155c <shiftright>
    156e:	07 00 37    	bra       0x157e <round>

00001570 <shiftleft>:
    1570:	08 04 44    	add.w     w8, w8, w8
    1572:	89 84 4c    	addc.w    w9, w9, w9
    1574:	00 00 48    	addc.w    w0, w0, w0
    1576:	81 80 48    	addc.w    w1, w1, w1
    1578:	8b 05 e9    	dec.w     w11, w11
    157a:	04 42 e9    	dec.b     w4, w4
    157c:	f9 ff 3a    	bra       NZ, 0x1570 <shiftleft>

0000157e <round>:
    157e:	22 ff 07    	rcall     0x13c4 <__fpack>

00001580 <return0>:
    1580:	4f 05 be    	mov.d     [--w15], w10
    1582:	4f 04 be    	mov.d     [--w15], w8
    1584:	00 00 06    	return    

00001586 <_fputs>:
    1586:	88 9f be    	mov.d     w8, [w15++]
    1588:	00 04 be    	mov.d     w0, w8
    158a:	06 00 37    	bra       0x1598 <.L2>

0000158c <.L4>:
    158c:	00 00 fb    	se        w0, w0
    158e:	89 00 78    	mov.w     w9, w1
    1590:	76 02 07    	rcall     0x1a7e <_fputc>
    1592:	e1 0f 40    	add.w     w0, #0x1, [w15]
    1594:	05 00 32    	bra       Z, 0x15a0 <.L3>
    1596:	08 04 e8    	inc.w     w8, w8

00001598 <.L2>:
    1598:	18 40 78    	mov.b     [w8], w0
    159a:	e0 4f 50    	sub.b     w0, #0x0, [w15]
    159c:	f7 ff 3a    	bra       NZ, 0x158c <.L4>
    159e:	00 00 eb    	clr.w     w0

000015a0 <.L3>:
    15a0:	4f 04 be    	mov.d     [--w15], w8
    15a2:	00 00 06    	return    

000015a4 <_puts>:
    15a4:	88 1f 78    	mov.w     w8, [w15++]
    15a6:	a1 d2 20    	mov.w     #0xd2a, w1
    15a8:	ee ff 07    	rcall     0x1586 <_fputs>
    15aa:	00 04 78    	mov.w     w0, w8
    15ac:	a1 d2 20    	mov.w     #0xd2a, w1
    15ae:	a0 00 20    	mov.w     #0xa, w0
    15b0:	66 02 07    	rcall     0x1a7e <_fputc>
    15b2:	08 00 78    	mov.w     w8, w0
    15b4:	4f 04 78    	mov.w     [--w15], w8
    15b6:	00 00 06    	return    

000015b8 <__sscanf_cdnopuxX>:
    15b8:	0c 00 fa    	lnk       #0xc
    15ba:	a0 bf 9f    	mov.w     w0, [w15-12]
    15bc:	c0 bf 9f    	mov.w     w0, [w15-8]
    15be:	a4 02 07    	rcall     0x1b08 <_strlen>
    15c0:	b0 bf 9f    	mov.w     w0, [w15-10]
    15c2:	f0 bf 9f    	mov.w     w0, [w15-2]
    15c4:	10 0c 20    	mov.w     #0xc1, w0
    15c6:	d0 bf 9f    	mov.w     w0, [w15-6]
    15c8:	74 81 57    	sub.w     w15, #0x14, w2
    15ca:	ef b0 97    	mov.w     [w15-20], w1
    15cc:	6c 80 57    	sub.w     w15, #0xc, w0
    15ce:	34 00 07    	rcall     0x1638 <__vfscanf_cdnopuxX>
    15d0:	00 80 fa    	ulnk      
    15d2:	00 00 06    	return    

000015d4 <_wspace>:
    15d4:	88 1f 78    	mov.w     w8, [w15++]

000015d6 <.L2>:
    15d6:	50 6a 80    	mov.w     0xd4a, w0
    15d8:	d1 01 07    	rcall     0x197c <_fgetc>
    15da:	00 04 78    	mov.w     w0, w8
    15dc:	08 00 78    	mov.w     w8, w0
    15de:	1c fe 07    	rcall     0x1218 <_isspace>
    15e0:	e0 0f 50    	sub.w     w0, #0x0, [w15]
    15e2:	f9 ff 3a    	bra       NZ, 0x15d6 <.L2>
    15e4:	e1 0f 44    	add.w     w8, #0x1, [w15]
    15e6:	03 00 32    	bra       Z, 0x15ee <.L4>
    15e8:	51 6a 80    	mov.w     0xd4a, w1
    15ea:	08 00 78    	mov.w     w8, w0
    15ec:	94 02 07    	rcall     0x1b16 <_ungetc>

000015ee <.L4>:
    15ee:	4f 04 78    	mov.w     [--w15], w8
    15f0:	00 00 06    	return    

000015f2 <_range>:
    15f2:	88 9f be    	mov.d     w8, [w15++]
    15f4:	8a 1f 78    	mov.w     w10, [w15++]
    15f6:	00 04 78    	mov.w     w0, w8
    15f8:	81 44 78    	mov.b     w1, w9
    15fa:	02 05 78    	mov.w     w2, w10
    15fc:	00 fd 2f    	mov.w     #0xffd0, w0
    15fe:	08 00 40    	add.w     w0, w8, w0
    1600:	e9 0f 50    	sub.w     w0, #0x9, [w15]
    1602:	02 00 3e    	bra       GTU, 0x1608 <.L7>
    1604:	00 04 78    	mov.w     w0, w8
    1606:	10 00 37    	bra       0x1628 <.L8>

00001608 <.L7>:
    1608:	08 00 78    	mov.w     w8, w0
    160a:	0e fe 07    	rcall     0x1228 <_isupper>
    160c:	e0 0f 50    	sub.w     w0, #0x0, [w15]
    160e:	05 00 32    	bra       Z, 0x161a <.L9>
    1610:	e0 0f 55    	sub.w     w10, #0x0, [w15]
    1612:	03 00 32    	bra       Z, 0x161a <.L9>
    1614:	08 00 78    	mov.w     w8, w0
    1616:	0e fe 07    	rcall     0x1234 <_tolower>
    1618:	00 04 78    	mov.w     w0, w8

0000161a <.L9>:
    161a:	08 00 78    	mov.w     w8, w0
    161c:	f3 fd 07    	rcall     0x1204 <_isalpha>
    161e:	80 00 78    	mov.w     w0, w1
    1620:	00 c0 eb    	setm.b    w0
    1622:	e0 8f 50    	sub.w     w1, #0x0, [w15]
    1624:	06 00 32    	bra       Z, 0x1632 <.L10>
    1626:	78 05 b1    	sub.w     #0x57, w8

00001628 <.L8>:
    1628:	89 84 fb    	ze        w9, w9
    162a:	00 c0 eb    	setm.b    w0
    162c:	89 0f 54    	sub.w     w8, w9, [w15]
    162e:	01 00 3d    	bra       GE, 0x1632 <.L10>
    1630:	08 40 78    	mov.b     w8, w0

00001632 <.L10>:
    1632:	4f 05 78    	mov.w     [--w15], w10
    1634:	4f 04 be    	mov.d     [--w15], w8
    1636:	00 00 06    	return    

00001638 <__vfscanf_cdnopuxX>:
    1638:	f2 87 47    	add.w     w15, #0x12, w15
    163a:	88 9f be    	mov.d     w8, [w15++]
    163c:	8a 9f be    	mov.d     w10, [w15++]
    163e:	8c 9f be    	mov.d     w12, [w15++]
    1640:	8e 1f 78    	mov.w     w14, [w15++]
    1642:	80 01 78    	mov.w     w0, w3
    1644:	e1 b7 9f    	mov.w     w1, [w15-20]
    1646:	d2 b7 9f    	mov.w     w2, [w15-22]
    1648:	53 6a 88    	mov.w     w3, 0xd4a
    164a:	00 00 eb    	clr.w     w0
    164c:	b0 b7 9f    	mov.w     w0, [w15-26]
    164e:	80 40 78    	mov.b     w0, w1
    1650:	e1 ef 9f    	mov.b     w1, [w15-18]
    1652:	5d 01 37    	bra       0x190e <.L80>

00001654 <.L64>:
    1654:	6f b0 97    	mov.w     [w15-20], w0
    1656:	00 00 e8    	inc.w     w0, w0
    1658:	e0 b7 9f    	mov.w     w0, [w15-20]
    165a:	08 85 fb    	ze        w8, w10
    165c:	0a 00 78    	mov.w     w10, w0
    165e:	dc fd 07    	rcall     0x1218 <_isspace>
    1660:	e0 0f 50    	sub.w     w0, #0x0, [w15]
    1662:	02 00 32    	bra       Z, 0x1668 <.L15>
    1664:	b7 ff 07    	rcall     0x15d4 <_wspace>
    1666:	53 01 37    	bra       0x190e <.L80>

00001668 <.L15>:
    1668:	51 c2 b3    	mov.b     #0x25, w1
    166a:	81 4f 54    	sub.b     w8, w1, [w15]
    166c:	41 01 3a    	bra       NZ, 0x18f0 <.L17>
    166e:	21 c0 b3    	mov.b     #0x2, w1
    1670:	00 47 78    	mov.b     w0, w14
    1672:	6f b2 97    	mov.w     [w15-20], w4
    1674:	01 45 78    	mov.b     w1, w10
    1676:	84 06 78    	mov.w     w4, w13
    1678:	04 00 37    	bra       0x1682 <.L18>

0000167a <.L65>:
    167a:	2a c0 b3    	mov.b     #0x2, w10
    167c:	01 00 37    	bra       0x1680 <.L19>

0000167e <.L68>:
    167e:	4a c0 b3    	mov.b     #0x4, w10

00001680 <.L19>:
    1680:	0d 02 78    	mov.w     w13, w4

00001682 <.L18>:
    1682:	3d 44 78    	mov.b     [w13++], w8
    1684:	81 c6 b3    	mov.b     #0x68, w1
    1686:	81 4f 54    	sub.b     w8, w1, [w15]
    1688:	f8 ff 32    	bra       Z, 0x167a <.L65>
    168a:	15 00 3e    	bra       GTU, 0x16b6 <.L30>
    168c:	f0 c0 50    	sub.b     w1, #0x10, w1
    168e:	81 4f 54    	sub.b     w8, w1, [w15]
    1690:	2f 00 32    	bra       Z, 0x16f0 <.L24>
    1692:	0a 00 3e    	bra       GTU, 0x16a8 <.L31>
    1694:	ec c0 50    	sub.b     w1, #0xc, w1
    1696:	81 4f 54    	sub.b     w8, w1, [w15]
    1698:	27 00 32    	bra       Z, 0x16e8 <.L23>
    169a:	86 00 3e    	bra       GTU, 0x17a8 <.L20>
    169c:	e0 4f 54    	sub.b     w8, #0x0, [w15]
    169e:	bb 00 32    	bra       Z, 0x1816 <.L98>
    16a0:	a1 c2 b3    	mov.b     #0x2a, w1
    16a2:	81 4f 54    	sub.b     w8, w1, [w15]
    16a4:	81 00 3a    	bra       NZ, 0x17a8 <.L20>
    16a6:	1e 00 37    	bra       0x16e4 <.L101>

000016a8 <.L31>:
    16a8:	31 c6 b3    	mov.b     #0x63, w1
    16aa:	81 4f 54    	sub.b     w8, w1, [w15]
    16ac:	60 00 32    	bra       Z, 0x176e <.L25>
    16ae:	81 40 e8    	inc.b     w1, w1
    16b0:	81 4f 54    	sub.b     w8, w1, [w15]
    16b2:	7a 00 3a    	bra       NZ, 0x17a8 <.L20>
    16b4:	8d 00 37    	bra       0x17d0 <.L82>

000016b6 <.L30>:
    16b6:	31 c7 b3    	mov.b     #0x73, w1
    16b8:	81 4f 54    	sub.b     w8, w1, [w15]
    16ba:	21 00 32    	bra       Z, 0x16fe <.L28>
    16bc:	07 00 3e    	bra       GTU, 0x16cc <.L32>
    16be:	e7 c0 50    	sub.b     w1, #0x7, w1
    16c0:	81 4f 54    	sub.b     w8, w1, [w15]
    16c2:	12 00 32    	bra       Z, 0x16e8 <.L23>
    16c4:	e3 c0 40    	add.b     w1, #0x3, w1
    16c6:	81 4f 54    	sub.b     w8, w1, [w15]
    16c8:	6f 00 3a    	bra       NZ, 0x17a8 <.L20>
    16ca:	87 00 37    	bra       0x17da <.L102>

000016cc <.L32>:
    16cc:	51 c7 b3    	mov.b     #0x75, w1
    16ce:	81 4f 54    	sub.b     w8, w1, [w15]
    16d0:	7f 00 32    	bra       Z, 0x17d0 <.L82>
    16d2:	e3 c0 40    	add.b     w1, #0x3, w1
    16d4:	81 4f 54    	sub.b     w8, w1, [w15]
    16d6:	68 00 3a    	bra       NZ, 0x17a8 <.L20>
    16d8:	ca e7 9f    	mov.b     w10, [w15-28]
    16da:	00 46 78    	mov.b     w0, w12
    16dc:	ed b7 9f    	mov.w     w13, [w15-20]
    16de:	00 00 eb    	clr.w     w0
    16e0:	b0 b7 9f    	mov.w     w0, [w15-26]
    16e2:	0b 00 37    	bra       0x16fa <.L88>

000016e4 <.L101>:
    16e4:	0e 47 e8    	inc.b     w14, w14
    16e6:	cc ff 37    	bra       0x1680 <.L19>

000016e8 <.L23>:
    16e8:	e2 4f 55    	sub.b     w10, #0x2, [w15]
    16ea:	c9 ff 32    	bra       Z, 0x167e <.L68>
    16ec:	8a c0 b3    	mov.b     #0x8, w10
    16ee:	c8 ff 37    	bra       0x1680 <.L19>

000016f0 <.L24>:
    16f0:	ca e7 9f    	mov.b     w10, [w15-28]
    16f2:	00 46 78    	mov.b     w0, w12
    16f4:	ed b7 9f    	mov.w     w13, [w15-20]
    16f6:	11 00 20    	mov.w     #0x1, w1
    16f8:	b1 b7 9f    	mov.w     w1, [w15-26]

000016fa <.L88>:
    16fa:	0d c1 b3    	mov.b     #0x10, w13
    16fc:	72 00 37    	bra       0x17e2 <.L27>

000016fe <.L28>:
    16fe:	00 46 78    	mov.b     w0, w12
    1700:	ed b7 9f    	mov.w     w13, [w15-20]
    1702:	68 ff 07    	rcall     0x15d4 <_wspace>
    1704:	e0 4f 57    	sub.b     w14, #0x0, [w15]
    1706:	04 00 3a    	bra       NZ, 0x1710 <.L35>
    1708:	5f b0 97    	mov.w     [w15-22], w0
    170a:	c0 00 78    	mov.w     [--w0], w1
    170c:	d0 b7 9f    	mov.w     w0, [w15-22]
    170e:	c1 b7 9f    	mov.w     w1, [w15-24]

00001710 <.L35>:
    1710:	50 6a 80    	mov.w     0xd4a, w0
    1712:	34 01 07    	rcall     0x197c <_fgetc>
    1714:	00 04 78    	mov.w     w0, w8
    1716:	e1 0f 44    	add.w     w8, #0x1, [w15]
    1718:	14 00 3a    	bra       NZ, 0x1742 <.L83>
    171a:	08 00 78    	mov.w     w8, w0
    171c:	f4 00 37    	bra       0x1906 <.L63>

0000171e <.L41>:
    171e:	ef b0 97    	mov.w     [w15-20], w1
    1720:	11 00 fb    	se        [w1], w0
    1722:	80 0f 54    	sub.w     w8, w0, [w15]
    1724:	05 00 3a    	bra       NZ, 0x1730 <.L38>
    1726:	0a 00 78    	mov.w     w10, w0
    1728:	c0 b7 9f    	mov.w     w0, [w15-24]
    172a:	81 00 e8    	inc.w     w1, w1
    172c:	e1 b7 9f    	mov.w     w1, [w15-20]
    172e:	17 00 37    	bra       0x175e <.L39>

00001730 <.L38>:
    1730:	e0 4f 57    	sub.b     w14, #0x0, [w15]
    1732:	01 00 3a    	bra       NZ, 0x1736 <.L40>
    1734:	08 5d 78    	mov.b     w8, [w10++]

00001736 <.L40>:
    1736:	0c 46 e9    	dec.b     w12, w12
    1738:	0d 00 32    	bra       Z, 0x1754 <.L84>
    173a:	50 6a 80    	mov.w     0xd4a, w0
    173c:	1f 01 07    	rcall     0x197c <_fgetc>
    173e:	00 04 78    	mov.w     w0, w8
    1740:	01 00 37    	bra       0x1744 <.L81>

00001742 <.L83>:
    1742:	4f b5 97    	mov.w     [w15-24], w10

00001744 <.L81>:
    1744:	08 00 e8    	inc.w     w8, w0
    1746:	e1 0f 50    	sub.w     w0, #0x1, [w15]
    1748:	08 00 36    	bra       LEU, 0x175a <.L85>
    174a:	08 00 78    	mov.w     w8, w0
    174c:	65 fd 07    	rcall     0x1218 <_isspace>
    174e:	e0 0f 50    	sub.w     w0, #0x0, [w15]
    1750:	e6 ff 32    	bra       Z, 0x171e <.L41>
    1752:	03 00 37    	bra       0x175a <.L85>

00001754 <.L84>:
    1754:	0a 00 78    	mov.w     w10, w0
    1756:	c0 b7 9f    	mov.w     w0, [w15-24]
    1758:	02 00 37    	bra       0x175e <.L39>

0000175a <.L85>:
    175a:	8a 00 78    	mov.w     w10, w1
    175c:	c1 b7 9f    	mov.w     w1, [w15-24]

0000175e <.L39>:
    175e:	e0 4f 57    	sub.b     w14, #0x0, [w15]
    1760:	d6 00 3a    	bra       NZ, 0x190e <.L80>
    1762:	6f e8 97    	mov.b     [w15-18], w0
    1764:	00 40 e8    	inc.b     w0, w0
    1766:	e0 ef 9f    	mov.b     w0, [w15-18]
    1768:	cf b0 97    	mov.w     [w15-24], w1
    176a:	8e 48 78    	mov.b     w14, [w1]
    176c:	d0 00 37    	bra       0x190e <.L80>

0000176e <.L25>:
    176e:	00 46 78    	mov.b     w0, w12
    1770:	ed b7 9f    	mov.w     w13, [w15-20]
    1772:	e0 4f 57    	sub.b     w14, #0x0, [w15]
    1774:	08 00 3a    	bra       NZ, 0x1786 <.L86>
    1776:	6f e8 97    	mov.b     [w15-18], w0
    1778:	00 40 e8    	inc.b     w0, w0
    177a:	e0 ef 9f    	mov.b     w0, [w15-18]
    177c:	df b0 97    	mov.w     [w15-22], w1
    177e:	41 00 78    	mov.w     [--w1], w0
    1780:	d1 b7 9f    	mov.w     w1, [w15-22]
    1782:	00 04 78    	mov.w     w0, w8
    1784:	01 00 37    	bra       0x1788 <.L76>

00001786 <.L86>:
    1786:	4f b4 97    	mov.w     [w15-24], w8

00001788 <.L76>:
    1788:	50 6a 80    	mov.w     0xd4a, w0
    178a:	f8 00 07    	rcall     0x197c <_fgetc>
    178c:	80 00 78    	mov.w     w0, w1
    178e:	e1 8f 40    	add.w     w1, #0x1, [w15]
    1790:	02 00 3a    	bra       NZ, 0x1796 <.L43>
    1792:	01 00 78    	mov.w     w1, w0
    1794:	b8 00 37    	bra       0x1906 <.L63>

00001796 <.L43>:
    1796:	e0 4f 57    	sub.b     w14, #0x0, [w15]
    1798:	01 00 3a    	bra       NZ, 0x179c <.L44>
    179a:	01 5c 78    	mov.b     w1, [w8++]

0000179c <.L44>:
    179c:	0c 46 e9    	dec.b     w12, w12
    179e:	42 40 a9    	bclr.b    0x42, #0x2
    17a0:	f3 ff 3c    	bra       GT, 0x1788 <.L76>
    17a2:	08 00 78    	mov.w     w8, w0
    17a4:	c0 b7 9f    	mov.w     w0, [w15-24]
    17a6:	b3 00 37    	bra       0x190e <.L80>

000017a8 <.L20>:
    17a8:	08 84 fb    	ze        w8, w8
    17aa:	00 fd 2f    	mov.w     #0xffd0, w0
    17ac:	08 00 40    	add.w     w0, w8, w0
    17ae:	e9 0f 50    	sub.w     w0, #0x9, [w15]
    17b0:	09 00 3e    	bra       GTU, 0x17c4 <.L46>
    17b2:	04 00 78    	mov.w     w4, w0
    17b4:	bf 00 07    	rcall     0x1934 <_atoi>
    17b6:	01 00 37    	bra       0x17ba <.L47>

000017b8 <.L48>:
    17b8:	8d 06 e8    	inc.w     w13, w13

000017ba <.L47>:
    17ba:	9d 00 fb    	se        [w13], w1
    17bc:	01 03 b1    	sub.w     #0x30, w1
    17be:	e9 8f 50    	sub.w     w1, #0x9, [w15]
    17c0:	fb ff 36    	bra       LEU, 0x17b8 <.L48>
    17c2:	5e ff 37    	bra       0x1680 <.L19>

000017c4 <.L46>:
    17c4:	ed b7 9f    	mov.w     w13, [w15-20]
    17c6:	50 6a 80    	mov.w     0xd4a, w0
    17c8:	d9 00 07    	rcall     0x197c <_fgetc>
    17ca:	80 0f 54    	sub.w     w8, w0, [w15]
    17cc:	97 00 3a    	bra       NZ, 0x18fc <.L100>
    17ce:	9f 00 37    	bra       0x190e <.L80>

000017d0 <.L82>:
    17d0:	ca e7 9f    	mov.b     w10, [w15-28]
    17d2:	00 46 78    	mov.b     w0, w12
    17d4:	ed b7 9f    	mov.w     w13, [w15-20]
    17d6:	ad c0 b3    	mov.b     #0xa, w13
    17d8:	04 00 37    	bra       0x17e2 <.L27>

000017da <.L102>:
    17da:	ca e7 9f    	mov.b     w10, [w15-28]
    17dc:	00 46 78    	mov.b     w0, w12
    17de:	ed b7 9f    	mov.w     w13, [w15-20]
    17e0:	8d c0 b3    	mov.b     #0x8, w13

000017e2 <.L27>:
    17e2:	f8 fe 07    	rcall     0x15d4 <_wspace>
    17e4:	50 6a 80    	mov.w     0xd4a, w0
    17e6:	ca 00 07    	rcall     0x197c <_fgetc>
    17e8:	80 02 78    	mov.w     w0, w5
    17ea:	00 40 eb    	clr.b     w0
    17ec:	b0 e7 9f    	mov.b     w0, [w15-29]
    17ee:	d3 02 20    	mov.w     #0x2d, w3
    17f0:	83 8f 52    	sub.w     w5, w3, [w15]
    17f2:	05 00 3a    	bra       NZ, 0x17fe <.L50>
    17f4:	50 6a 80    	mov.w     0xd4a, w0
    17f6:	c2 00 07    	rcall     0x197c <_fgetc>
    17f8:	80 02 78    	mov.w     w0, w5
    17fa:	11 c0 b3    	mov.b     #0x1, w1
    17fc:	b1 e7 9f    	mov.b     w1, [w15-29]

000017fe <.L50>:
    17fe:	3f b1 97    	mov.w     [w15-26], w2
    1800:	8d 40 78    	mov.b     w13, w1
    1802:	05 00 78    	mov.w     w5, w0
    1804:	85 bf 9f    	mov.w     w5, [w15-16]
    1806:	f5 fe 07    	rcall     0x15f2 <_range>
    1808:	80 41 78    	mov.b     w0, w3
    180a:	8f ba 97    	mov.w     [w15-16], w5
    180c:	e1 cf 41    	add.b     w3, #0x1, [w15]
    180e:	0e 00 3a    	bra       NZ, 0x182c <.L51>
    1810:	51 6a 80    	mov.w     0xd4a, w1
    1812:	05 00 78    	mov.w     w5, w0
    1814:	80 01 07    	rcall     0x1b16 <_ungetc>

00001816 <.L98>:
    1816:	6f e8 97    	mov.b     [w15-18], w0
    1818:	e0 4f 50    	sub.b     w0, #0x0, [w15]
    181a:	02 00 32    	bra       Z, 0x1820 <.L52>
    181c:	80 40 78    	mov.b     w0, w1
    181e:	7c 00 37    	bra       0x1918 <.L89>

00001820 <.L52>:
    1820:	50 6a 80    	mov.w     0xd4a, w0
    1822:	30 00 90    	mov.w     [w0+6], w0
    1824:	70 00 60    	and.w     w0, #0x10, w0
    1826:	79 00 32    	bra       Z, 0x191a <.L34>
    1828:	00 80 eb    	setm.w    w0
    182a:	77 00 37    	bra       0x191a <.L34>

0000182c <.L51>:
    182c:	03 03 20    	mov.w     #0x30, w3
    182e:	83 8f 52    	sub.w     w5, w3, [w15]
    1830:	1b 00 3a    	bra       NZ, 0x1868 <.L53>
    1832:	50 6a 80    	mov.w     0xd4a, w0
    1834:	85 bf 9f    	mov.w     w5, [w15-16]
    1836:	a2 00 07    	rcall     0x197c <_fgetc>
    1838:	80 01 78    	mov.w     w0, w3
    183a:	84 07 20    	mov.w     #0x78, w4
    183c:	8f ba 97    	mov.w     [w15-16], w5
    183e:	84 8f 51    	sub.w     w3, w4, [w15]
    1840:	04 00 3a    	bra       NZ, 0x184a <.L54>
    1842:	3f b0 97    	mov.w     [w15-26], w0
    1844:	e0 0f 50    	sub.w     w0, #0x0, [w15]
    1846:	07 00 32    	bra       Z, 0x1856 <.L55>
    1848:	0a 00 37    	bra       0x185e <.L56>

0000184a <.L54>:
    184a:	84 05 20    	mov.w     #0x58, w4
    184c:	84 8f 51    	sub.w     w3, w4, [w15]
    184e:	07 00 3a    	bra       NZ, 0x185e <.L56>
    1850:	bf b0 97    	mov.w     [w15-26], w1
    1852:	e0 8f 50    	sub.w     w1, #0x0, [w15]
    1854:	04 00 32    	bra       Z, 0x185e <.L56>

00001856 <.L55>:
    1856:	50 6a 80    	mov.w     0xd4a, w0
    1858:	91 00 07    	rcall     0x197c <_fgetc>
    185a:	80 02 78    	mov.w     w0, w5
    185c:	05 00 37    	bra       0x1868 <.L53>

0000185e <.L56>:
    185e:	51 6a 80    	mov.w     0xd4a, w1
    1860:	03 00 78    	mov.w     w3, w0
    1862:	85 bf 9f    	mov.w     w5, [w15-16]
    1864:	58 01 07    	rcall     0x1b16 <_ungetc>
    1866:	8f ba 97    	mov.w     [w15-16], w5

00001868 <.L53>:
    1868:	60 44 b8    	mul.uu    w8, #0x0, w8
    186a:	0d 85 fb    	ze        w13, w10
    186c:	0b 00 20    	mov.w     #0x0, w11
    186e:	0e 40 78    	mov.b     w14, w0
    1870:	a0 e7 9f    	mov.b     w0, [w15-30]
    1872:	05 07 78    	mov.w     w5, w14

00001874 <.L58>:
    1874:	0a 01 be    	mov.d     w10, w2
    1876:	08 00 be    	mov.d     w8, w0
    1878:	e3 05 07    	rcall     0x2440 <___mulp32eds3>
    187a:	00 04 be    	mov.d     w0, w8
    187c:	3f b1 97    	mov.w     [w15-26], w2
    187e:	8d 40 78    	mov.b     w13, w1
    1880:	0e 00 78    	mov.w     w14, w0
    1882:	b7 fe 07    	rcall     0x15f2 <_range>
    1884:	00 42 78    	mov.b     w0, w4
    1886:	04 82 fb    	ze        w4, w4
    1888:	05 00 20    	mov.w     #0x0, w5
    188a:	04 04 44    	add.w     w8, w4, w8
    188c:	85 84 4c    	addc.w    w9, w5, w9
    188e:	0c 46 e9    	dec.b     w12, w12
    1890:	0a 00 32    	bra       Z, 0x18a6 <.L57>
    1892:	50 6a 80    	mov.w     0xd4a, w0
    1894:	73 00 07    	rcall     0x197c <_fgetc>
    1896:	00 07 78    	mov.w     w0, w14
    1898:	3f b1 97    	mov.w     [w15-26], w2
    189a:	8d 40 78    	mov.b     w13, w1
    189c:	0e 00 78    	mov.w     w14, w0
    189e:	a9 fe 07    	rcall     0x15f2 <_range>
    18a0:	80 41 78    	mov.b     w0, w3
    18a2:	e1 cf 41    	add.b     w3, #0x1, [w15]
    18a4:	e7 ff 3a    	bra       NZ, 0x1874 <.L58>

000018a6 <.L57>:
    18a6:	8e 02 78    	mov.w     w14, w5
    18a8:	2f e7 97    	mov.b     [w15-30], w14
    18aa:	3f b1 97    	mov.w     [w15-26], w2
    18ac:	8d 40 78    	mov.b     w13, w1
    18ae:	05 00 78    	mov.w     w5, w0
    18b0:	85 bf 9f    	mov.w     w5, [w15-16]
    18b2:	9f fe 07    	rcall     0x15f2 <_range>
    18b4:	80 40 78    	mov.b     w0, w1
    18b6:	8f ba 97    	mov.w     [w15-16], w5
    18b8:	e1 cf 40    	add.b     w1, #0x1, [w15]
    18ba:	03 00 3a    	bra       NZ, 0x18c2 <.L59>
    18bc:	51 6a 80    	mov.w     0xd4a, w1
    18be:	05 00 78    	mov.w     w5, w0
    18c0:	2a 01 07    	rcall     0x1b16 <_ungetc>

000018c2 <.L59>:
    18c2:	bf e0 97    	mov.b     [w15-29], w1
    18c4:	e0 cf 50    	sub.b     w1, #0x0, [w15]
    18c6:	02 00 32    	bra       Z, 0x18cc <.L60>
    18c8:	60 04 14    	subr.w    w8, #0x0, w8
    18ca:	e0 84 1c    	subbr.w   w9, #0x0, w9

000018cc <.L60>:
    18cc:	e0 4f 57    	sub.b     w14, #0x0, [w15]
    18ce:	1f 00 3a    	bra       NZ, 0x190e <.L80>
    18d0:	6f e8 97    	mov.b     [w15-18], w0
    18d2:	00 40 e8    	inc.b     w0, w0
    18d4:	e0 ef 9f    	mov.b     w0, [w15-18]
    18d6:	df b0 97    	mov.w     [w15-22], w1
    18d8:	01 80 e9    	dec2.w    w1, w0
    18da:	cf e0 97    	mov.b     [w15-28], w1
    18dc:	e4 cf 50    	sub.b     w1, #0x4, [w15]
    18de:	04 00 3a    	bra       NZ, 0x18e8 <.L61>
    18e0:	d0 b7 9f    	mov.w     w0, [w15-22]
    18e2:	90 00 78    	mov.w     [w0], w1
    18e4:	88 88 be    	mov.d     w8, [w1]
    18e6:	13 00 37    	bra       0x190e <.L80>

000018e8 <.L61>:
    18e8:	d0 b7 9f    	mov.w     w0, [w15-22]
    18ea:	90 00 78    	mov.w     [w0], w1
    18ec:	88 08 78    	mov.w     w8, [w1]
    18ee:	0f 00 37    	bra       0x190e <.L80>

000018f0 <.L17>:
    18f0:	50 6a 80    	mov.w     0xd4a, w0
    18f2:	44 00 07    	rcall     0x197c <_fgetc>
    18f4:	80 00 78    	mov.w     w0, w1
    18f6:	81 0f 55    	sub.w     w10, w1, [w15]
    18f8:	0a 00 32    	bra       Z, 0x190e <.L80>
    18fa:	01 00 78    	mov.w     w1, w0

000018fc <.L100>:
    18fc:	e1 0f 40    	add.w     w0, #0x1, [w15]
    18fe:	03 00 32    	bra       Z, 0x1906 <.L63>
    1900:	51 6a 80    	mov.w     0xd4a, w1
    1902:	09 01 07    	rcall     0x1b16 <_ungetc>
    1904:	08 00 37    	bra       0x1916 <.L94>

00001906 <.L63>:
    1906:	ef e8 97    	mov.b     [w15-18], w1
    1908:	e0 cf 50    	sub.b     w1, #0x0, [w15]
    190a:	06 00 3a    	bra       NZ, 0x1918 <.L89>
    190c:	06 00 37    	bra       0x191a <.L34>

0000190e <.L80>:
    190e:	6f b0 97    	mov.w     [w15-20], w0
    1910:	10 44 78    	mov.b     [w0], w8
    1912:	e0 4f 54    	sub.b     w8, #0x0, [w15]
    1914:	9f fe 3a    	bra       NZ, 0x1654 <.L64>

00001916 <.L94>:
    1916:	ef e8 97    	mov.b     [w15-18], w1

00001918 <.L89>:
    1918:	01 80 fb    	ze        w1, w0

0000191a <.L34>:
    191a:	4f 07 78    	mov.w     [--w15], w14
    191c:	4f 06 be    	mov.d     [--w15], w12
    191e:	4f 05 be    	mov.d     [--w15], w10
    1920:	4f 04 be    	mov.d     [--w15], w8
    1922:	2f 01 b1    	sub.w     #0x12, w15
    1924:	00 00 06    	return    

00001926 <__printf_cdnopsuxX>:
    1926:	00 00 fa    	lnk       #0x0
    1928:	68 81 57    	sub.w     w15, #0x8, w2
    192a:	cf b8 97    	mov.w     [w15-8], w1
    192c:	a0 d2 20    	mov.w     #0xd2a, w0
    192e:	12 01 07    	rcall     0x1b54 <__vfprintf_cdnopsuxX>
    1930:	00 80 fa    	ulnk      
    1932:	00 00 06    	return    

00001934 <_atoi>:
    1934:	02 c2 b3    	mov.b     #0x20, w2
    1936:	01 00 37    	bra       0x193a <.L2>

00001938 <.L3>:
    1938:	00 00 e8    	inc.w     w0, w0

0000193a <.L2>:
    193a:	90 40 78    	mov.b     [w0], w1
    193c:	82 cf 50    	sub.b     w1, w2, [w15]
    193e:	fc ff 32    	bra       Z, 0x1938 <.L3>
    1940:	e9 cf 50    	sub.b     w1, #0x9, [w15]
    1942:	fa ff 32    	bra       Z, 0x1938 <.L3>
    1944:	d2 c2 b3    	mov.b     #0x2d, w2
    1946:	82 cf 50    	sub.b     w1, w2, [w15]
    1948:	03 00 3a    	bra       NZ, 0x1950 <.L4>
    194a:	00 00 e8    	inc.w     w0, w0
    194c:	12 c0 b3    	mov.b     #0x1, w2
    194e:	05 00 37    	bra       0x195a <.L5>

00001950 <.L4>:
    1950:	00 41 eb    	clr.b     w2
    1952:	b3 c2 b3    	mov.b     #0x2b, w3
    1954:	83 cf 50    	sub.b     w1, w3, [w15]
    1956:	01 00 3a    	bra       NZ, 0x195a <.L5>
    1958:	00 00 e8    	inc.w     w0, w0

0000195a <.L5>:
    195a:	80 00 eb    	clr.w     w1
    195c:	05 00 37    	bra       0x1968 <.L6>

0000195e <.L7>:
    195e:	6a 0a b9    	mul.su    w1, #0xa, w4
    1960:	01 fd 2f    	mov.w     #0xffd0, w1
    1962:	84 80 40    	add.w     w1, w4, w1
    1964:	83 80 40    	add.w     w1, w3, w1
    1966:	00 00 e8    	inc.w     w0, w0

00001968 <.L6>:
    1968:	90 01 fb    	se        [w0], w3
    196a:	04 fd 2f    	mov.w     #0xffd0, w4
    196c:	03 02 42    	add.w     w4, w3, w4
    196e:	e9 0f 52    	sub.w     w4, #0x9, [w15]
    1970:	f6 ff 36    	bra       LEU, 0x195e <.L7>
    1972:	e0 4f 51    	sub.b     w2, #0x0, [w15]
    1974:	01 00 32    	bra       Z, 0x1978 <.L8>
    1976:	81 00 ea    	neg.w     w1, w1

00001978 <.L8>:
    1978:	01 00 78    	mov.w     w1, w0
    197a:	00 00 06    	return    

0000197c <_fgetc>:
    197c:	88 1f 78    	mov.w     w8, [w15++]
    197e:	00 04 78    	mov.w     w0, w8
    1980:	38 00 90    	mov.w     [w8+6], w0
    1982:	f1 00 60    	and.w     w0, #0x11, w1
    1984:	e1 8f 50    	sub.w     w1, #0x1, [w15]
    1986:	06 00 3a    	bra       NZ, 0x1994 <.L2>
    1988:	80 00 78    	mov.w     w0, w1
    198a:	01 20 b2    	and.w     #0x200, w1
    198c:	08 00 32    	bra       Z, 0x199e <.L3>
    198e:	98 00 90    	mov.w     [w8+2], w1
    1990:	e0 8f 50    	sub.w     w1, #0x0, [w15]
    1992:	05 00 32    	bra       Z, 0x199e <.L3>

00001994 <.L2>:
    1994:	38 00 90    	mov.w     [w8+6], w0
    1996:	00 40 a0    	bset.w    w0, #0x4
    1998:	30 04 98    	mov.w     w0, [w8+6]
    199a:	00 80 eb    	setm.w    w0
    199c:	20 00 37    	bra       0x19de <.L4>

0000199e <.L3>:
    199e:	00 90 a1    	bclr.w    w0, #0x9
    19a0:	30 04 98    	mov.w     w0, [w8+6]

000019a2 <.L8>:
    19a2:	18 00 90    	mov.w     [w8+2], w0
    19a4:	e0 0f 50    	sub.w     w0, #0x0, [w15]
    19a6:	07 00 34    	bra       LE, 0x19b6 <.L5>
    19a8:	00 00 e9    	dec.w     w0, w0
    19aa:	10 04 98    	mov.w     w0, [w8+2]
    19ac:	98 00 78    	mov.w     [w8], w1
    19ae:	11 41 78    	mov.b     [w1], w2
    19b0:	02 80 fb    	ze        w2, w0
    19b2:	01 0c e8    	inc.w     w1, [w8]
    19b4:	05 00 37    	bra       0x19c0 <.L6>

000019b6 <.L5>:
    19b6:	38 00 90    	mov.w     [w8+6], w0
    19b8:	00 04 b2    	and.w     #0x40, w0
    19ba:	ec ff 3a    	bra       NZ, 0x1994 <.L2>
    19bc:	08 00 78    	mov.w     w8, w0
    19be:	11 00 07    	rcall     0x19e2 <__filbuf>

000019c0 <.L6>:
    19c0:	b8 00 90    	mov.w     [w8+6], w1
    19c2:	01 08 b2    	and.w     #0x80, w1
    19c4:	0c 00 3a    	bra       NZ, 0x19de <.L4>
    19c6:	fa 0f 50    	sub.w     w0, #0x1a, [w15]
    19c8:	08 00 3a    	bra       NZ, 0x19da <.L7>
    19ca:	28 00 90    	mov.w     [w8+4], w0
    19cc:	e0 0f 50    	sub.w     w0, #0x0, [w15]
    19ce:	e2 ff 32    	bra       Z, 0x1994 <.L2>
    19d0:	18 00 90    	mov.w     [w8+2], w0
    19d2:	00 00 e8    	inc.w     w0, w0
    19d4:	10 04 98    	mov.w     w0, [w8+2]
    19d6:	18 0c e9    	dec.w     [w8], [w8]
    19d8:	dd ff 37    	bra       0x1994 <.L2>

000019da <.L7>:
    19da:	ed 0f 50    	sub.w     w0, #0xd, [w15]
    19dc:	e2 ff 32    	bra       Z, 0x19a2 <.L8>

000019de <.L4>:
    19de:	4f 04 78    	mov.w     [--w15], w8
    19e0:	00 00 06    	return    

000019e2 <__filbuf>:
    19e2:	02 00 fa    	lnk       #0x2
    19e4:	88 9f be    	mov.d     w8, [w15++]
    19e6:	8a 9f be    	mov.d     w10, [w15++]
    19e8:	00 04 78    	mov.w     w0, w8
    19ea:	00 00 eb    	clr.w     w0
    19ec:	10 04 98    	mov.w     w0, [w8+2]
    19ee:	b8 00 90    	mov.w     [w8+6], w1
    19f0:	e1 80 60    	and.w     w1, #0x1, w1
    19f2:	00 80 eb    	setm.w    w0
    19f4:	40 00 32    	bra       Z, 0x1a76 <.L2>
    19f6:	40 d4 20    	mov.w     #0xd44, w0
    19f8:	80 40 eb    	clr.b     w1
    19fa:	90 cf 10    	subr.b    w1, [w0], [w15]
    19fc:	0f 00 32    	bra       Z, 0x1a1c <.L3>
    19fe:	e9 d1 20    	mov.w     #0xd1e, w9
    1a00:	2b 10 20    	mov.w     #0x102, w11
    1a02:	4a 02 20    	mov.w     #0x24, w10
    1a04:	09 05 45    	add.w     w10, w9, w10

00001a06 <.L5>:
    1a06:	39 00 90    	mov.w     [w9+6], w0
    1a08:	20 10 b2    	and.w     #0x102, w0
    1a0a:	8b 0f 50    	sub.w     w0, w11, [w15]
    1a0c:	02 00 3a    	bra       NZ, 0x1a12 <.L4>
    1a0e:	09 00 78    	mov.w     w9, w0
    1a10:	78 04 07    	rcall     0x2302 <_fflush>

00001a12 <.L4>:
    1a12:	ec 84 44    	add.w     w9, #0xc, w9
    1a14:	8a 8f 54    	sub.w     w9, w10, [w15]
    1a16:	f7 ff 3a    	bra       NZ, 0x1a06 <.L5>
    1a18:	40 d4 20    	mov.w     #0xd44, w0
    1a1a:	00 48 eb    	clr.b     [w0]

00001a1c <.L3>:
    1a1c:	58 01 90    	mov.w     [w8+10], w2
    1a1e:	e0 0f 51    	sub.w     w2, #0x0, [w15]
    1a20:	0e 00 3a    	bra       NZ, 0x1a3e <.L6>
    1a22:	12 04 98    	mov.w     w2, [w8+2]
    1a24:	12 00 20    	mov.w     #0x1, w2
    1a26:	ea 80 57    	sub.w     w15, #0xa, w1
    1a28:	48 00 90    	mov.w     [w8+8], w0
    1a2a:	d7 04 07    	rcall     0x23da <_read>
    1a2c:	e1 0f 50    	sub.w     w0, #0x1, [w15]
    1a2e:	03 00 3a    	bra       NZ, 0x1a36 <.L7>
    1a30:	6f f1 97    	mov.b     [w15-10], w2
    1a32:	02 80 fb    	ze        w2, w0
    1a34:	20 00 37    	bra       0x1a76 <.L2>

00001a36 <.L7>:
    1a36:	38 00 90    	mov.w     [w8+6], w0
    1a38:	00 40 a0    	bset.w    w0, #0x4
    1a3a:	30 04 98    	mov.w     w0, [w8+6]
    1a3c:	13 00 37    	bra       0x1a64 <.L16>

00001a3e <.L6>:
    1a3e:	a8 00 90    	mov.w     [w8+4], w1
    1a40:	48 00 90    	mov.w     [w8+8], w0
    1a42:	cb 04 07    	rcall     0x23da <_read>
    1a44:	10 04 98    	mov.w     w0, [w8+2]
    1a46:	e0 0f 50    	sub.w     w0, #0x0, [w15]
    1a48:	03 00 32    	bra       Z, 0x1a50 <.L8>
    1a4a:	e1 0f 40    	add.w     w0, #0x1, [w15]
    1a4c:	0d 00 3a    	bra       NZ, 0x1a68 <.L14>
    1a4e:	03 00 37    	bra       0x1a56 <.L17>

00001a50 <.L8>:
    1a50:	38 00 90    	mov.w     [w8+6], w0
    1a52:	00 40 a0    	bset.w    w0, #0x4
    1a54:	02 00 37    	bra       0x1a5a <.L15>

00001a56 <.L17>:
    1a56:	38 00 90    	mov.w     [w8+6], w0
    1a58:	00 03 b3    	ior.w     #0x30, w0

00001a5a <.L15>:
    1a5a:	30 04 98    	mov.w     w0, [w8+6]
    1a5c:	28 00 90    	mov.w     [w8+4], w0
    1a5e:	00 0c 78    	mov.w     w0, [w8]
    1a60:	00 00 eb    	clr.w     w0
    1a62:	10 04 98    	mov.w     w0, [w8+2]

00001a64 <.L16>:
    1a64:	00 80 eb    	setm.w    w0
    1a66:	07 00 37    	bra       0x1a76 <.L2>

00001a68 <.L14>:
    1a68:	a8 00 90    	mov.w     [w8+4], w1
    1a6a:	01 0c 78    	mov.w     w1, [w8]
    1a6c:	00 00 e9    	dec.w     w0, w0
    1a6e:	10 04 98    	mov.w     w0, [w8+2]
    1a70:	11 41 78    	mov.b     [w1], w2
    1a72:	02 80 fb    	ze        w2, w0
    1a74:	01 0c e8    	inc.w     w1, [w8]

00001a76 <.L2>:
    1a76:	4f 05 be    	mov.d     [--w15], w10
    1a78:	4f 04 be    	mov.d     [--w15], w8
    1a7a:	00 80 fa    	ulnk      
    1a7c:	00 00 06    	return    

00001a7e <_fputc>:
    1a7e:	88 9f be    	mov.d     w8, [w15++]
    1a80:	01 04 78    	mov.w     w1, w8
    1a82:	b8 00 90    	mov.w     [w8+6], w1
    1a84:	62 81 60    	and.w     w1, #0x2, w2
    1a86:	80 84 eb    	setm.w    w9
    1a88:	3c 00 32    	bra       Z, 0x1b02 <.L2>
    1a8a:	81 01 78    	mov.w     w1, w3
    1a8c:	03 20 b2    	and.w     #0x200, w3
    1a8e:	18 01 90    	mov.w     [w8+2], w2
    1a90:	02 00 3a    	bra       NZ, 0x1a96 <.L3>
    1a92:	e0 0f 51    	sub.w     w2, #0x0, [w15]
    1a94:	36 00 3a    	bra       NZ, 0x1b02 <.L2>

00001a96 <.L3>:
    1a96:	01 90 a0    	bset.w    w1, #0x9
    1a98:	31 04 98    	mov.w     w1, [w8+6]
    1a9a:	80 04 78    	mov.w     w0, w9
    1a9c:	f9 0f b2    	and.w     #0xff, w9
    1a9e:	e0 0f 51    	sub.w     w2, #0x0, [w15]
    1aa0:	02 00 3a    	bra       NZ, 0x1aa6 <.L4>
    1aa2:	28 00 90    	mov.w     [w8+4], w0
    1aa4:	00 0c 78    	mov.w     w0, [w8]

00001aa6 <.L4>:
    1aa6:	ea 8f 54    	sub.w     w9, #0xa, [w15]
    1aa8:	06 00 3a    	bra       NZ, 0x1ab6 <.L5>
    1aaa:	01 00 78    	mov.w     w1, w0
    1aac:	00 08 b2    	and.w     #0x80, w0
    1aae:	03 00 3a    	bra       NZ, 0x1ab6 <.L5>
    1ab0:	88 00 78    	mov.w     w8, w1
    1ab2:	d0 00 20    	mov.w     #0xd, w0
    1ab4:	e4 ff 07    	rcall     0x1a7e <_fputc>

00001ab6 <.L5>:
    1ab6:	18 00 90    	mov.w     [w8+2], w0
    1ab8:	d8 00 90    	mov.w     [w8+10], w1
    1aba:	81 0f 50    	sub.w     w0, w1, [w15]
    1abc:	0b 00 32    	bra       Z, 0x1ad4 <.L6>
    1abe:	00 00 e8    	inc.w     w0, w0
    1ac0:	10 04 98    	mov.w     w0, [w8+2]
    1ac2:	18 00 78    	mov.w     [w8], w0
    1ac4:	09 48 78    	mov.b     w9, [w0]
    1ac6:	00 0c e8    	inc.w     w0, [w8]
    1ac8:	10 c0 b3    	mov.b     #0x1, w0
    1aca:	41 d4 20    	mov.w     #0xd44, w1
    1acc:	80 48 78    	mov.b     w0, [w1]
    1ace:	ea 8f 54    	sub.w     w9, #0xa, [w15]
    1ad0:	18 00 3a    	bra       NZ, 0x1b02 <.L2>
    1ad2:	05 00 37    	bra       0x1ade <.L11>

00001ad4 <.L6>:
    1ad4:	88 00 78    	mov.w     w8, w1
    1ad6:	09 40 78    	mov.b     w9, w0
    1ad8:	3e 04 07    	rcall     0x2356 <__flsbuf>
    1ada:	80 04 78    	mov.w     w0, w9
    1adc:	12 00 37    	bra       0x1b02 <.L2>

00001ade <.L11>:
    1ade:	38 00 90    	mov.w     [w8+6], w0
    1ae0:	00 10 b2    	and.w     #0x100, w0
    1ae2:	0f 00 32    	bra       Z, 0x1b02 <.L2>
    1ae4:	18 01 90    	mov.w     [w8+2], w2
    1ae6:	a8 00 90    	mov.w     [w8+4], w1
    1ae8:	48 00 90    	mov.w     [w8+8], w0
    1aea:	ae 07 07    	rcall     0x2a48 <_write>
    1aec:	98 00 90    	mov.w     [w8+2], w1
    1aee:	81 0f 50    	sub.w     w0, w1, [w15]
    1af0:	04 00 32    	bra       Z, 0x1afa <.L8>
    1af2:	38 00 90    	mov.w     [w8+6], w0
    1af4:	00 03 b3    	ior.w     #0x30, w0
    1af6:	30 04 98    	mov.w     w0, [w8+6]
    1af8:	80 84 eb    	setm.w    w9

00001afa <.L8>:
    1afa:	00 00 eb    	clr.w     w0
    1afc:	10 04 98    	mov.w     w0, [w8+2]
    1afe:	28 00 90    	mov.w     [w8+4], w0
    1b00:	00 0c 78    	mov.w     w0, [w8]

00001b02 <.L2>:
    1b02:	09 00 78    	mov.w     w9, w0
    1b04:	4f 04 be    	mov.d     [--w15], w8
    1b06:	00 00 06    	return    

00001b08 <_strlen>:
    1b08:	80 00 78    	mov.w     w0, w1

00001b0a <.L2>:
    1b0a:	00 41 eb    	clr.b     w2
    1b0c:	b1 4f 11    	subr.b    w2, [w1++], [w15]
    1b0e:	fd ff 3a    	bra       NZ, 0x1b0a <.L2>
    1b10:	00 80 ea    	com.w     w0, w0
    1b12:	00 80 40    	add.w     w1, w0, w0
    1b14:	00 00 06    	return    

00001b16 <_ungetc>:
    1b16:	e1 0f 40    	add.w     w0, #0x1, [w15]
    1b18:	1c 00 32    	bra       Z, 0x1b52 <.L2>
    1b1a:	31 01 90    	mov.w     [w1+6], w2
    1b1c:	12 20 b2    	and.w     #0x201, w2
    1b1e:	e1 0f 51    	sub.w     w2, #0x1, [w15]
    1b20:	15 00 3a    	bra       NZ, 0x1b4c <.L6>
    1b22:	21 02 90    	mov.w     [w1+4], w4
    1b24:	e0 0f 52    	sub.w     w4, #0x0, [w15]
    1b26:	12 00 32    	bra       Z, 0x1b4c <.L6>
    1b28:	11 01 90    	mov.w     [w1+2], w2
    1b2a:	d1 01 90    	mov.w     [w1+10], w3
    1b2c:	83 0f 51    	sub.w     w2, w3, [w15]
    1b2e:	10 00 32    	bra       Z, 0x1b50 <.L7>
    1b30:	91 01 78    	mov.w     [w1], w3
    1b32:	84 8f 51    	sub.w     w3, w4, [w15]
    1b34:	02 00 3a    	bra       NZ, 0x1b3a <.L3>
    1b36:	83 08 e8    	inc.w     w3, [w1]
    1b38:	02 00 37    	bra       0x1b3e <.L4>

00001b3a <.L3>:
    1b3a:	02 01 e8    	inc.w     w2, w2
    1b3c:	92 00 98    	mov.w     w2, [w1+2]

00001b3e <.L4>:
    1b3e:	11 01 e9    	dec.w     [w1], w2
    1b40:	82 08 78    	mov.w     w2, [w1]
    1b42:	b1 00 90    	mov.w     [w1+6], w1
    1b44:	01 04 b2    	and.w     #0x40, w1
    1b46:	05 00 3a    	bra       NZ, 0x1b52 <.L2>
    1b48:	00 49 78    	mov.b     w0, [w2]
    1b4a:	00 00 06    	return    

00001b4c <.L6>:
    1b4c:	00 80 eb    	setm.w    w0
    1b4e:	00 00 06    	return    

00001b50 <.L7>:
    1b50:	00 80 eb    	setm.w    w0

00001b52 <.L2>:
    1b52:	00 00 06    	return    

00001b54 <__vfprintf_cdnopsuxX>:
    1b54:	0f 04 b0    	add.w     #0x40, w15
    1b56:	88 9f be    	mov.d     w8, [w15++]
    1b58:	8a 9f be    	mov.d     w10, [w15++]
    1b5a:	8c 9f be    	mov.d     w12, [w15++]
    1b5c:	8e 1f 78    	mov.w     w14, [w15++]
    1b5e:	c0 b7 9f    	mov.w     w0, [w15-24]
    1b60:	d1 af 9f    	mov.w     w1, [w15-38]
    1b62:	a2 b7 9f    	mov.w     w2, [w15-28]
    1b64:	00 00 eb    	clr.w     w0
    1b66:	c0 03 37    	bra       0x22e8 <.L180>

00001b68 <.L132>:
    1b68:	df a8 97    	mov.w     [w15-38], w1
    1b6a:	81 00 e8    	inc.w     w1, w1
    1b6c:	d1 af 9f    	mov.w     w1, [w15-38]
    1b6e:	52 c2 b3    	mov.b     #0x25, w2
    1b70:	82 cf 52    	sub.b     w5, w2, [w15]
    1b72:	06 00 3a    	bra       NZ, 0x1b80 <.L3>
    1b74:	00 07 eb    	clr.w     w14
    1b76:	06 c3 b3    	mov.b     #0x30, w6
    1b78:	03 c2 b3    	mov.b     #0x20, w3
    1b7a:	b1 c2 b3    	mov.b     #0x2b, w1
    1b7c:	5f a8 97    	mov.w     [w15-38], w0
    1b7e:	14 00 37    	bra       0x1ba8 <.L164>

00001b80 <.L3>:
    1b80:	cf b1 97    	mov.w     [w15-24], w3
    1b82:	33 01 90    	mov.w     [w3+6], w2
    1b84:	02 04 b2    	and.w     #0x40, w2
    1b86:	05 00 32    	bra       Z, 0x1b92 <.L5>
    1b88:	03 02 78    	mov.w     w3, w4
    1b8a:	94 01 78    	mov.w     [w4], w3
    1b8c:	85 49 78    	mov.b     w5, [w3]
    1b8e:	03 0a e8    	inc.w     w3, [w4]
    1b90:	07 00 37    	bra       0x1ba0 <.L6>

00001b92 <.L5>:
    1b92:	05 01 fb    	se        w5, w2
    1b94:	cf b0 97    	mov.w     [w15-24], w1
    1b96:	02 00 78    	mov.w     w2, w0
    1b98:	72 ff 07    	rcall     0x1a7e <_fputc>
    1b9a:	00 01 78    	mov.w     w0, w2
    1b9c:	e1 0f 41    	add.w     w2, #0x1, [w15]
    1b9e:	a5 03 32    	bra       Z, 0x22ea <.L161>

00001ba0 <.L6>:
    1ba0:	bf b2 97    	mov.w     [w15-26], w5
    1ba2:	85 02 e8    	inc.w     w5, w5
    1ba4:	b5 b7 9f    	mov.w     w5, [w15-26]
    1ba6:	a1 03 37    	bra       0x22ea <.L161>

00001ba8 <.L164>:
    1ba8:	90 42 78    	mov.b     [w0], w5
    1baa:	d7 c2 b3    	mov.b     #0x2d, w7
    1bac:	87 cf 52    	sub.b     w5, w7, [w15]
    1bae:	0b 00 32    	bra       Z, 0x1bc6 <.L11>
    1bb0:	00 01 e8    	inc.w     w0, w2
    1bb2:	87 cf 52    	sub.b     w5, w7, [w15]
    1bb4:	05 00 3c    	bra       GT, 0x1bc0 <.L13>
    1bb6:	83 cf 52    	sub.b     w5, w3, [w15]
    1bb8:	09 00 32    	bra       Z, 0x1bcc <.L9>
    1bba:	81 cf 52    	sub.b     w5, w1, [w15]
    1bbc:	0e 00 3a    	bra       NZ, 0x1bda <.L8>
    1bbe:	08 00 37    	bra       0x1bd0 <.L181>

00001bc0 <.L13>:
    1bc0:	86 cf 52    	sub.b     w5, w6, [w15]
    1bc2:	0b 00 3a    	bra       NZ, 0x1bda <.L8>
    1bc4:	07 00 37    	bra       0x1bd4 <.L182>

00001bc6 <.L11>:
    1bc6:	0e 30 a0    	bset.w    w14, #0x3
    1bc8:	00 00 e8    	inc.w     w0, w0
    1bca:	ee ff 37    	bra       0x1ba8 <.L164>

00001bcc <.L9>:
    1bcc:	0e 00 a0    	bset.w    w14, #0x0
    1bce:	03 00 37    	bra       0x1bd6 <.L173>

00001bd0 <.L181>:
    1bd0:	0e 10 a0    	bset.w    w14, #0x1
    1bd2:	01 00 37    	bra       0x1bd6 <.L173>

00001bd4 <.L182>:
    1bd4:	0e 20 a0    	bset.w    w14, #0x2

00001bd6 <.L173>:
    1bd6:	02 00 78    	mov.w     w2, w0
    1bd8:	e7 ff 37    	bra       0x1ba8 <.L164>

00001bda <.L8>:
    1bda:	d0 af 9f    	mov.w     w0, [w15-38]
    1bdc:	e2 01 67    	and.w     w14, #0x2, w3
    1bde:	01 00 32    	bra       Z, 0x1be2 <.L15>
    1be0:	0e 00 a1    	bclr.w    w14, #0x0

00001be2 <.L15>:
    1be2:	e8 01 67    	and.w     w14, #0x8, w3
    1be4:	01 00 32    	bra       Z, 0x1be8 <.L16>
    1be6:	0e 20 a1    	bclr.w    w14, #0x2

00001be8 <.L16>:
    1be8:	85 01 fb    	se        w5, w3
    1bea:	03 03 b1    	sub.w     #0x30, w3
    1bec:	e9 8f 51    	sub.w     w3, #0x9, [w15]
    1bee:	0d 00 3e    	bra       GTU, 0x1c0a <.L17>
    1bf0:	00 00 20    	mov.w     #0x0, w0
    1bf2:	5f a9 97    	mov.w     [w15-38], w2

00001bf4 <.L18>:
    1bf4:	6a 00 b9    	mul.su    w0, #0xa, w0
    1bf6:	00 03 b1    	sub.w     #0x30, w0
    1bf8:	92 00 fb    	se        [w2], w1
    1bfa:	01 00 40    	add.w     w0, w1, w0
    1bfc:	d2 00 fb    	se        [++w2], w1
    1bfe:	01 03 b1    	sub.w     #0x30, w1
    1c00:	e9 8f 50    	sub.w     w1, #0x9, [w15]
    1c02:	f8 ff 36    	bra       LEU, 0x1bf4 <.L18>
    1c04:	c0 af 9f    	mov.w     w0, [w15-40]
    1c06:	d2 af 9f    	mov.w     w2, [w15-38]
    1c08:	0c 00 37    	bra       0x1c22 <.L19>

00001c0a <.L17>:
    1c0a:	80 04 eb    	clr.w     w9
    1c0c:	c9 af 9f    	mov.w     w9, [w15-40]
    1c0e:	a3 c2 b3    	mov.b     #0x2a, w3
    1c10:	83 cf 52    	sub.b     w5, w3, [w15]
    1c12:	07 00 3a    	bra       NZ, 0x1c22 <.L19>
    1c14:	2f b5 97    	mov.w     [w15-28], w10
    1c16:	ca 05 78    	mov.w     [--w10], w11
    1c18:	aa b7 9f    	mov.w     w10, [w15-28]
    1c1a:	cb af 9f    	mov.w     w11, [w15-40]
    1c1c:	5f a8 97    	mov.w     [w15-38], w0
    1c1e:	00 00 e8    	inc.w     w0, w0
    1c20:	d0 af 9f    	mov.w     w0, [w15-38]

00001c22 <.L19>:
    1c22:	80 00 eb    	clr.w     w1
    1c24:	e1 af 9f    	mov.w     w1, [w15-36]
    1c26:	e3 c2 b3    	mov.b     #0x2e, w3
    1c28:	5f a9 97    	mov.w     [w15-38], w2
    1c2a:	92 cf 11    	subr.b    w3, [w2], [w15]
    1c2c:	1e 00 3a    	bra       NZ, 0x1c6a <.L167>
    1c2e:	0e e0 a0    	bset.w    w14, #0xe
    1c30:	e4 c1 51    	sub.b     w3, #0x4, w3
    1c32:	02 01 e8    	inc.w     w2, w2
    1c34:	d2 af 9f    	mov.w     w2, [w15-38]
    1c36:	12 42 78    	mov.b     [w2], w4
    1c38:	83 4f 52    	sub.b     w4, w3, [w15]
    1c3a:	0d 00 3a    	bra       NZ, 0x1c56 <.L168>
    1c3c:	af b2 97    	mov.w     [w15-28], w5
    1c3e:	45 03 78    	mov.w     [--w5], w6
    1c40:	a5 b7 9f    	mov.w     w5, [w15-28]
    1c42:	e6 af 9f    	mov.w     w6, [w15-36]
    1c44:	82 03 78    	mov.w     w2, w7
    1c46:	87 03 e8    	inc.w     w7, w7
    1c48:	07 01 78    	mov.w     w7, w2
    1c4a:	10 00 37    	bra       0x1c6c <.L162>

00001c4c <.L24>:
    1c4c:	6a 00 b9    	mul.su    w0, #0xa, w0
    1c4e:	00 03 b1    	sub.w     #0x30, w0
    1c50:	02 00 40    	add.w     w0, w2, w0
    1c52:	83 01 e8    	inc.w     w3, w3
    1c54:	02 00 37    	bra       0x1c5a <.L22>

00001c56 <.L168>:
    1c56:	6f a8 97    	mov.w     [w15-36], w0
    1c58:	df a9 97    	mov.w     [w15-38], w3

00001c5a <.L22>:
    1c5a:	13 01 fb    	se        [w3], w2
    1c5c:	01 fd 2f    	mov.w     #0xffd0, w1
    1c5e:	82 80 40    	add.w     w1, w2, w1
    1c60:	e9 8f 50    	sub.w     w1, #0x9, [w15]
    1c62:	f4 ff 36    	bra       LEU, 0x1c4c <.L24>
    1c64:	e0 af 9f    	mov.w     w0, [w15-36]
    1c66:	03 01 78    	mov.w     w3, w2
    1c68:	01 00 37    	bra       0x1c6c <.L162>

00001c6a <.L167>:
    1c6a:	5f a9 97    	mov.w     [w15-38], w2

00001c6c <.L162>:
    1c6c:	32 42 78    	mov.b     [w2++], w4
    1c6e:	c4 77 9f    	mov.b     w4, [w15-76]
    1c70:	c8 c6 b3    	mov.b     #0x6c, w8
    1c72:	88 4f 52    	sub.b     w4, w8, [w15]
    1c74:	23 00 32    	bra       Z, 0x1cbc <.L30>
    1c76:	d2 af 9f    	mov.w     w2, [w15-38]
    1c78:	0f 00 3c    	bra       GT, 0x1c98 <.L35>
    1c7a:	35 c6 b3    	mov.b     #0x63, w5
    1c7c:	85 4f 52    	sub.b     w4, w5, [w15]
    1c7e:	a7 00 32    	bra       Z, 0x1dce <.L28>
    1c80:	04 00 3c    	bra       GT, 0x1c8a <.L36>
    1c82:	e0 4f 52    	sub.b     w4, #0x0, [w15]
    1c84:	37 03 32    	bra       Z, 0x22f4 <.L26>
    1c86:	83 c5 b3    	mov.b     #0x58, w3
    1c88:	0f 00 37    	bra       0x1ca8 <.L175>

00001c8a <.L36>:
    1c8a:	43 c6 b3    	mov.b     #0x64, w3
    1c8c:	83 4f 52    	sub.b     w4, w3, [w15]
    1c8e:	c4 00 32    	bra       Z, 0x1e18 <.L29>
    1c90:	e5 c1 41    	add.b     w3, #0x5, w3
    1c92:	83 4f 52    	sub.b     w4, w3, [w15]
    1c94:	ba 00 3a    	bra       NZ, 0x1e0a <.L25>
    1c96:	c0 00 37    	bra       0x1e18 <.L29>

00001c98 <.L35>:
    1c98:	35 c7 b3    	mov.b     #0x73, w5
    1c9a:	85 4f 52    	sub.b     w4, w5, [w15]
    1c9c:	1a 00 32    	bra       Z, 0x1cd2 <.L32>
    1c9e:	07 00 3c    	bra       GT, 0x1cae <.L37>
    1ca0:	f3 c6 b3    	mov.b     #0x6f, w3
    1ca2:	83 4f 52    	sub.b     w4, w3, [w15]
    1ca4:	11 00 32    	bra       Z, 0x1cc8 <.L31>
    1ca6:	83 41 e8    	inc.b     w3, w3

00001ca8 <.L175>:
    1ca8:	83 4f 52    	sub.b     w4, w3, [w15]
    1caa:	af 00 3a    	bra       NZ, 0x1e0a <.L25>
    1cac:	0f 00 37    	bra       0x1ccc <.L183>

00001cae <.L37>:
    1cae:	53 c7 b3    	mov.b     #0x75, w3
    1cb0:	83 4f 52    	sub.b     w4, w3, [w15]
    1cb2:	b1 00 32    	bra       Z, 0x1e16 <.L33>
    1cb4:	e3 c1 41    	add.b     w3, #0x3, w3
    1cb6:	83 4f 52    	sub.b     w4, w3, [w15]
    1cb8:	a8 00 3a    	bra       NZ, 0x1e0a <.L25>
    1cba:	09 00 37    	bra       0x1cce <.L34>

00001cbc <.L30>:
    1cbc:	70 00 67    	and.w     w14, #0x10, w0
    1cbe:	01 00 28    	mov.w     #0x8000, w1
    1cc0:	01 00 3a    	bra       NZ, 0x1cc4 <.L38>
    1cc2:	01 01 20    	mov.w     #0x10, w1

00001cc4 <.L38>:
    1cc4:	01 07 77    	ior.w     w14, w1, w14
    1cc6:	d2 ff 37    	bra       0x1c6c <.L162>

00001cc8 <.L31>:
    1cc8:	0e 60 a0    	bset.w    w14, #0x6
    1cca:	a6 00 37    	bra       0x1e18 <.L29>

00001ccc <.L183>:
    1ccc:	0e 50 a0    	bset.w    w14, #0x5

00001cce <.L34>:
    1cce:	0e 70 a0    	bset.w    w14, #0x7
    1cd0:	a3 00 37    	bra       0x1e18 <.L29>

00001cd2 <.L32>:
    1cd2:	af b4 97    	mov.w     [w15-28], w9
    1cd4:	c9 02 78    	mov.w     [--w9], w5
    1cd6:	a9 b7 9f    	mov.w     w9, [w15-28]
    1cd8:	d5 b7 9f    	mov.w     w5, [w15-22]
    1cda:	e0 8f 52    	sub.w     w5, #0x0, [w15]
    1cdc:	02 00 3a    	bra       NZ, 0x1ce2 <.L39>
    1cde:	6b d1 20    	mov.w     #0xd16, w11
    1ce0:	db b7 9f    	mov.w     w11, [w15-22]

00001ce2 <.L39>:
    1ce2:	00 00 eb    	clr.w     w0
    1ce4:	e0 b7 9f    	mov.w     w0, [w15-20]
    1ce6:	5f b0 97    	mov.w     [w15-22], w0
    1ce8:	ef b0 97    	mov.w     [w15-20], w1
    1cea:	7f b1 97    	mov.w     [w15-18], w2
    1cec:	8f b9 97    	mov.w     [w15-16], w3
    1cee:	01 00 37    	bra       0x1cf2 <.L40>

00001cf0 <.L41>:
    1cf0:	85 00 e8    	inc.w     w5, w1

00001cf2 <.L40>:
    1cf2:	81 02 78    	mov.w     w1, w5
    1cf4:	61 42 78    	mov.b     [w1+w0], w4
    1cf6:	e0 4f 52    	sub.b     w4, #0x0, [w15]
    1cf8:	fb ff 3a    	bra       NZ, 0x1cf0 <.L41>
    1cfa:	d0 b7 9f    	mov.w     w0, [w15-22]
    1cfc:	e1 b7 9f    	mov.w     w1, [w15-20]
    1cfe:	f2 b7 9f    	mov.w     w2, [w15-18]
    1d00:	83 bf 9f    	mov.w     w3, [w15-16]

00001d02 <.L42>:
    1d02:	ef aa 97    	mov.w     [w15-36], w5
    1d04:	e0 8f 52    	sub.w     w5, #0x0, [w15]
    1d06:	05 00 32    	bra       Z, 0x1d12 <.L43>
    1d08:	6f b3 97    	mov.w     [w15-20], w6
    1d0a:	86 8f 52    	sub.w     w5, w6, [w15]
    1d0c:	02 00 31    	bra       C, 0x1d12 <.L43>
    1d0e:	85 03 78    	mov.w     w5, w7
    1d10:	e7 b7 9f    	mov.w     w7, [w15-20]

00001d12 <.L43>:
    1d12:	ef b2 97    	mov.w     [w15-20], w5
    1d14:	00 06 eb    	clr.w     w12
    1d16:	4f ac 97    	mov.w     [w15-40], w8
    1d18:	85 0f 54    	sub.w     w8, w5, [w15]
    1d1a:	01 00 36    	bra       LEU, 0x1d1e <.L44>
    1d1c:	05 06 54    	sub.w     w8, w5, w12

00001d1e <.L44>:
    1d1e:	68 07 67    	and.w     w14, #0x8, w14
    1d20:	2f 00 3a    	bra       NZ, 0x1d80 <.L169>
    1d22:	8c 01 78    	mov.w     w12, w3
    1d24:	08 c2 b3    	mov.b     #0x20, w8
    1d26:	cf b6 97    	mov.w     [w15-24], w13
    1d28:	10 00 37    	bra       0x1d4a <.L46>

00001d2a <.L51>:
    1d2a:	3d 00 90    	mov.w     [w13+6], w0
    1d2c:	00 04 b2    	and.w     #0x40, w0
    1d2e:	04 00 32    	bra       Z, 0x1d38 <.L48>
    1d30:	1d 00 78    	mov.w     [w13], w0
    1d32:	08 48 78    	mov.b     w8, [w0]
    1d34:	80 0e e8    	inc.w     w0, [w13]
    1d36:	05 00 37    	bra       0x1d42 <.L49>

00001d38 <.L48>:
    1d38:	8d 00 78    	mov.w     w13, w1
    1d3a:	00 02 20    	mov.w     #0x20, w0
    1d3c:	a0 fe 07    	rcall     0x1a7e <_fputc>
    1d3e:	e1 0f 40    	add.w     w0, #0x1, [w15]
    1d40:	03 00 32    	bra       Z, 0x1d48 <.L50>

00001d42 <.L49>:
    1d42:	bf b4 97    	mov.w     [w15-26], w9
    1d44:	89 04 e8    	inc.w     w9, w9
    1d46:	b9 b7 9f    	mov.w     w9, [w15-26]

00001d48 <.L50>:
    1d48:	8c 01 78    	mov.w     w12, w3

00001d4a <.L46>:
    1d4a:	0c 06 e9    	dec.w     w12, w12
    1d4c:	e0 8f 51    	sub.w     w3, #0x0, [w15]
    1d4e:	ed ff 3a    	bra       NZ, 0x1d2a <.L51>
    1d50:	17 00 37    	bra       0x1d80 <.L169>

00001d52 <.L55>:
    1d52:	3d 00 90    	mov.w     [w13+6], w0
    1d54:	00 04 b2    	and.w     #0x40, w0
    1d56:	09 00 32    	bra       Z, 0x1d6a <.L52>
    1d58:	9d 01 78    	mov.w     [w13], w3
    1d5a:	08 01 78    	mov.w     w8, w2
    1d5c:	32 40 78    	mov.b     [w2++], w0
    1d5e:	80 49 78    	mov.b     w0, [w3]
    1d60:	83 0e e8    	inc.w     w3, [w13]
    1d62:	02 04 78    	mov.w     w2, w8
    1d64:	e0 4f 50    	sub.b     w0, #0x0, [w15]
    1d66:	08 00 3a    	bra       NZ, 0x1d78 <.L53>
    1d68:	10 00 37    	bra       0x1d8a <.L160>

00001d6a <.L52>:
    1d6a:	08 01 78    	mov.w     w8, w2
    1d6c:	32 00 fb    	se        [w2++], w0
    1d6e:	02 04 78    	mov.w     w2, w8
    1d70:	8d 00 78    	mov.w     w13, w1
    1d72:	85 fe 07    	rcall     0x1a7e <_fputc>
    1d74:	e1 0f 40    	add.w     w0, #0x1, [w15]
    1d76:	09 00 32    	bra       Z, 0x1d8a <.L160>

00001d78 <.L53>:
    1d78:	3f b0 97    	mov.w     [w15-26], w0
    1d7a:	00 00 e8    	inc.w     w0, w0
    1d7c:	b0 b7 9f    	mov.w     w0, [w15-26]
    1d7e:	05 00 37    	bra       0x1d8a <.L160>

00001d80 <.L169>:
    1d80:	5f b4 97    	mov.w     [w15-22], w8
    1d82:	ef b4 97    	mov.w     [w15-20], w9
    1d84:	7f b5 97    	mov.w     [w15-18], w10
    1d86:	8f bd 97    	mov.w     [w15-16], w11
    1d88:	cf b6 97    	mov.w     [w15-24], w13

00001d8a <.L160>:
    1d8a:	09 00 78    	mov.w     w9, w0
    1d8c:	80 04 e9    	dec.w     w0, w9
    1d8e:	e0 0f 50    	sub.w     w0, #0x0, [w15]
    1d90:	e0 ff 3a    	bra       NZ, 0x1d52 <.L55>
    1d92:	d8 b7 9f    	mov.w     w8, [w15-22]
    1d94:	e9 b7 9f    	mov.w     w9, [w15-20]
    1d96:	fa b7 9f    	mov.w     w10, [w15-18]
    1d98:	8b bf 9f    	mov.w     w11, [w15-16]
    1d9a:	e0 0f 57    	sub.w     w14, #0x0, [w15]
    1d9c:	a6 02 32    	bra       Z, 0x22ea <.L161>
    1d9e:	11 00 37    	bra       0x1dc2 <.L184>

00001da0 <.L60>:
    1da0:	38 00 90    	mov.w     [w8+6], w0
    1da2:	00 04 b2    	and.w     #0x40, w0
    1da4:	04 00 32    	bra       Z, 0x1dae <.L57>
    1da6:	18 00 78    	mov.w     [w8], w0
    1da8:	0d 48 78    	mov.b     w13, [w0]
    1daa:	00 0c e8    	inc.w     w0, [w8]
    1dac:	05 00 37    	bra       0x1db8 <.L58>

00001dae <.L57>:
    1dae:	88 00 78    	mov.w     w8, w1
    1db0:	00 02 20    	mov.w     #0x20, w0
    1db2:	65 fe 07    	rcall     0x1a7e <_fputc>
    1db4:	e1 0f 40    	add.w     w0, #0x1, [w15]
    1db6:	03 00 32    	bra       Z, 0x1dbe <.L59>

00001db8 <.L58>:
    1db8:	bf b2 97    	mov.w     [w15-26], w5
    1dba:	85 02 e8    	inc.w     w5, w5
    1dbc:	b5 b7 9f    	mov.w     w5, [w15-26]

00001dbe <.L59>:
    1dbe:	0e 06 78    	mov.w     w14, w12
    1dc0:	02 00 37    	bra       0x1dc6 <.L166>

00001dc2 <.L184>:
    1dc2:	0d c2 b3    	mov.b     #0x20, w13
    1dc4:	4f b4 97    	mov.w     [w15-24], w8

00001dc6 <.L166>:
    1dc6:	0c 07 e9    	dec.w     w12, w14
    1dc8:	e0 0f 56    	sub.w     w12, #0x0, [w15]
    1dca:	ea ff 3a    	bra       NZ, 0x1da0 <.L60>
    1dcc:	8e 02 37    	bra       0x22ea <.L161>

00001dce <.L28>:
    1dce:	2f b3 97    	mov.w     [w15-28], w6
    1dd0:	46 04 78    	mov.w     [--w6], w8
    1dd2:	a6 b7 9f    	mov.w     w6, [w15-28]
    1dd4:	cf c4 de    	asr.w     w8, #0xf, w9
    1dd6:	09 05 78    	mov.w     w9, w10
    1dd8:	8a 05 78    	mov.w     w10, w11
    1dda:	08 02 be    	mov.d     w8, w4
    1ddc:	0a 03 be    	mov.d     w10, w6
    1dde:	48 22 de    	lsr.w     w4, #0x8, w4
    1de0:	48 28 dd    	sl.w      w5, #0x8, w0
    1de2:	04 02 70    	ior.w     w0, w4, w4
    1de4:	c4 77 9f    	mov.b     w4, [w15-76]
    1de6:	70 06 67    	and.w     w14, #0x10, w12
    1de8:	09 00 32    	bra       Z, 0x1dfc <.L61>
    1dea:	e0 4f 52    	sub.b     w4, #0x0, [w15]
    1dec:	07 00 32    	bra       Z, 0x1dfc <.L61>
    1dee:	e1 4f 42    	add.b     w4, #0x1, [w15]
    1df0:	05 00 32    	bra       Z, 0x1dfc <.L61>
    1df2:	d4 77 9f    	mov.b     w4, [w15-75]
    1df4:	e8 77 9f    	mov.b     w8, [w15-74]
    1df6:	21 00 20    	mov.w     #0x2, w1
    1df8:	e1 b7 9f    	mov.w     w1, [w15-20]
    1dfa:	03 00 37    	bra       0x1e02 <.L62>

00001dfc <.L61>:
    1dfc:	d8 77 9f    	mov.b     w8, [w15-75]
    1dfe:	12 00 20    	mov.w     #0x1, w2
    1e00:	e2 b7 9f    	mov.w     w2, [w15-20]

00001e02 <.L62>:
    1e02:	53 fb 2f    	mov.w     #0xffb5, w3
    1e04:	83 81 47    	add.w     w15, w3, w3
    1e06:	d3 b7 9f    	mov.w     w3, [w15-22]
    1e08:	7c ff 37    	bra       0x1d02 <.L42>

00001e0a <.L25>:
    1e0a:	44 fb 2f    	mov.w     #0xffb4, w4
    1e0c:	04 82 47    	add.w     w15, w4, w4
    1e0e:	d4 b7 9f    	mov.w     w4, [w15-22]
    1e10:	15 00 20    	mov.w     #0x1, w5
    1e12:	e5 b7 9f    	mov.w     w5, [w15-20]
    1e14:	76 ff 37    	bra       0x1d02 <.L42>

00001e16 <.L33>:
    1e16:	0e 0c b3    	ior.w     #0xc0, w14

00001e18 <.L29>:
    1e18:	0e 00 78    	mov.w     w14, w0
    1e1a:	00 0c b2    	and.w     #0xc0, w0
    1e1c:	3b 00 3a    	bra       NZ, 0x1e94 <.L63>
    1e1e:	e0 0f 57    	sub.w     w14, #0x0, [w15]
    1e20:	05 00 3d    	bra       GE, 0x1e2c <.L64>
    1e22:	2f b0 97    	mov.w     [w15-28], w0
    1e24:	40 05 be    	mov.d     [--w0], w10
    1e26:	40 04 be    	mov.d     [--w0], w8
    1e28:	a0 b7 9f    	mov.w     w0, [w15-28]
    1e2a:	0f 00 37    	bra       0x1e4a <.L176>

00001e2c <.L64>:
    1e2c:	70 00 67    	and.w     w14, #0x10, w0
    1e2e:	12 00 32    	bra       Z, 0x1e54 <.L66>
    1e30:	2f b2 97    	mov.w     [w15-28], w4
    1e32:	44 01 be    	mov.d     [--w4], w2
    1e34:	a4 b7 9f    	mov.w     w4, [w15-28]
    1e36:	e2 9f 9f    	mov.w     w2, [w15-68]
    1e38:	f3 9f 9f    	mov.w     w3, [w15-66]
    1e3a:	14 00 90    	mov.w     [w4+2], w0
    1e3c:	4f 80 de    	asr.w     w0, #0xf, w0
    1e3e:	80 a7 9f    	mov.w     w0, [w15-64]
    1e40:	90 a7 9f    	mov.w     w0, [w15-62]
    1e42:	6f 9c 97    	mov.w     [w15-68], w8
    1e44:	ff 9c 97    	mov.w     [w15-66], w9
    1e46:	0f a5 97    	mov.w     [w15-64], w10
    1e48:	9f a5 97    	mov.w     [w15-62], w11

00001e4a <.L176>:
    1e4a:	d8 b7 9f    	mov.w     w8, [w15-22]
    1e4c:	e9 b7 9f    	mov.w     w9, [w15-20]
    1e4e:	fa b7 9f    	mov.w     w10, [w15-18]
    1e50:	8b bf 9f    	mov.w     w11, [w15-16]
    1e52:	0b 00 37    	bra       0x1e6a <.L65>

00001e54 <.L66>:
    1e54:	af b4 97    	mov.w     [w15-28], w9
    1e56:	49 02 78    	mov.w     [--w9], w4
    1e58:	a9 b7 9f    	mov.w     w9, [w15-28]
    1e5a:	04 00 78    	mov.w     w4, w0
    1e5c:	cf 80 de    	asr.w     w0, #0xf, w1
    1e5e:	01 01 78    	mov.w     w1, w2
    1e60:	82 01 78    	mov.w     w2, w3
    1e62:	d0 b7 9f    	mov.w     w0, [w15-22]
    1e64:	e1 b7 9f    	mov.w     w1, [w15-20]
    1e66:	f2 b7 9f    	mov.w     w2, [w15-18]
    1e68:	83 bf 9f    	mov.w     w3, [w15-16]

00001e6a <.L65>:
    1e6a:	5f b2 97    	mov.w     [w15-22], w4
    1e6c:	ef b2 97    	mov.w     [w15-20], w5
    1e6e:	7f b3 97    	mov.w     [w15-18], w6
    1e70:	8f bb 97    	mov.w     [w15-16], w7
    1e72:	e0 0f 52    	sub.w     w4, #0x0, [w15]
    1e74:	e0 8f 5a    	subb.w    w5, #0x0, [w15]
    1e76:	e0 0f 5b    	subb.w    w6, #0x0, [w15]
    1e78:	e0 8f 5b    	subb.w    w7, #0x0, [w15]
    1e7a:	32 00 3d    	bra       GE, 0x1ee0 <.L67>
    1e7c:	3e 00 b3    	ior.w     #0x3, w14
    1e7e:	60 22 b8    	mul.uu    w4, #0x0, w4
    1e80:	60 33 b8    	mul.uu    w6, #0x0, w6
    1e82:	5f b4 97    	mov.w     [w15-22], w8
    1e84:	ef b4 97    	mov.w     [w15-20], w9
    1e86:	7f b5 97    	mov.w     [w15-18], w10
    1e88:	8f bd 97    	mov.w     [w15-16], w11
    1e8a:	08 04 52    	sub.w     w4, w8, w8
    1e8c:	89 84 5a    	subb.w    w5, w9, w9
    1e8e:	0a 05 5b    	subb.w    w6, w10, w10
    1e90:	8b 85 5b    	subb.w    w7, w11, w11
    1e92:	22 00 37    	bra       0x1ed8 <.L177>

00001e94 <.L63>:
    1e94:	e0 0f 57    	sub.w     w14, #0x0, [w15]
    1e96:	05 00 3d    	bra       GE, 0x1ea2 <.L68>
    1e98:	2f b2 97    	mov.w     [w15-28], w4
    1e9a:	44 01 be    	mov.d     [--w4], w2
    1e9c:	44 00 be    	mov.d     [--w4], w0
    1e9e:	a4 b7 9f    	mov.w     w4, [w15-28]
    1ea0:	0f 00 37    	bra       0x1ec0 <.L178>

00001ea2 <.L68>:
    1ea2:	70 00 67    	and.w     w14, #0x10, w0
    1ea4:	12 00 32    	bra       Z, 0x1eca <.L69>
    1ea6:	2f b4 97    	mov.w     [w15-28], w8
    1ea8:	48 03 be    	mov.d     [--w8], w6
    1eaa:	a8 b7 9f    	mov.w     w8, [w15-28]
    1eac:	e6 a7 9f    	mov.w     w6, [w15-52]
    1eae:	f7 a7 9f    	mov.w     w7, [w15-50]
    1eb0:	80 04 eb    	clr.w     w9
    1eb2:	89 af 9f    	mov.w     w9, [w15-48]
    1eb4:	00 05 eb    	clr.w     w10
    1eb6:	9a af 9f    	mov.w     w10, [w15-46]
    1eb8:	6f a0 97    	mov.w     [w15-52], w0
    1eba:	ff a0 97    	mov.w     [w15-50], w1
    1ebc:	0f a9 97    	mov.w     [w15-48], w2
    1ebe:	9f a9 97    	mov.w     [w15-46], w3

00001ec0 <.L178>:
    1ec0:	d0 b7 9f    	mov.w     w0, [w15-22]
    1ec2:	e1 b7 9f    	mov.w     w1, [w15-20]
    1ec4:	f2 b7 9f    	mov.w     w2, [w15-18]
    1ec6:	83 bf 9f    	mov.w     w3, [w15-16]
    1ec8:	0b 00 37    	bra       0x1ee0 <.L67>

00001eca <.L69>:
    1eca:	af b0 97    	mov.w     [w15-28], w1
    1ecc:	41 02 78    	mov.w     [--w1], w4
    1ece:	a1 b7 9f    	mov.w     w1, [w15-28]
    1ed0:	04 04 78    	mov.w     w4, w8
    1ed2:	09 00 20    	mov.w     #0x0, w9
    1ed4:	0a 00 20    	mov.w     #0x0, w10
    1ed6:	0b 00 20    	mov.w     #0x0, w11

00001ed8 <.L177>:
    1ed8:	d8 b7 9f    	mov.w     w8, [w15-22]
    1eda:	e9 b7 9f    	mov.w     w9, [w15-20]
    1edc:	fa b7 9f    	mov.w     w10, [w15-18]
    1ede:	8b bf 9f    	mov.w     w11, [w15-16]

00001ee0 <.L67>:
    1ee0:	ef ac 97    	mov.w     [w15-36], w9
    1ee2:	e0 8f 54    	sub.w     w9, #0x0, [w15]
    1ee4:	0d 00 3a    	bra       NZ, 0x1f00 <.L70>
    1ee6:	1a 00 20    	mov.w     #0x1, w10
    1ee8:	ea af 9f    	mov.w     w10, [w15-36]
    1eea:	5f b0 97    	mov.w     [w15-22], w0
    1eec:	ef b0 97    	mov.w     [w15-20], w1
    1eee:	7f b1 97    	mov.w     [w15-18], w2
    1ef0:	8f b9 97    	mov.w     [w15-16], w3
    1ef2:	e0 0f 50    	sub.w     w0, #0x0, [w15]
    1ef4:	e0 8f 58    	subb.w    w1, #0x0, [w15]
    1ef6:	e0 0f 59    	subb.w    w2, #0x0, [w15]
    1ef8:	e0 8f 59    	subb.w    w3, #0x0, [w15]
    1efa:	02 00 32    	bra       Z, 0x1f00 <.L70>
    1efc:	80 00 eb    	clr.w     w1
    1efe:	e1 af 9f    	mov.w     w1, [w15-36]

00001f00 <.L70>:
    1f00:	0e 01 78    	mov.w     w14, w2
    1f02:	02 0c b2    	and.w     #0xc0, w2
    1f04:	b2 af 9f    	mov.w     w2, [w15-42]
    1f06:	05 04 20    	mov.w     #0x40, w5
    1f08:	85 0f 51    	sub.w     w2, w5, [w15]
    1f0a:	3f 00 32    	bra       Z, 0x1f8a <.L74>
    1f0c:	03 00 3c    	bra       GT, 0x1f14 <.L76>
    1f0e:	e0 0f 51    	sub.w     w2, #0x0, [w15]
    1f10:	08 00 32    	bra       Z, 0x1f22 <.L73>
    1f12:	56 00 37    	bra       0x1fc0 <.L72>

00001f14 <.L76>:
    1f14:	04 08 20    	mov.w     #0x80, w4
    1f16:	bf a9 97    	mov.w     [w15-42], w3
    1f18:	84 8f 51    	sub.w     w3, w4, [w15]
    1f1a:	1b 00 32    	bra       Z, 0x1f52 <.L75>
    1f1c:	04 0c 20    	mov.w     #0xc0, w4
    1f1e:	84 8f 51    	sub.w     w3, w4, [w15]
    1f20:	4f 00 3a    	bra       NZ, 0x1fc0 <.L72>

00001f22 <.L73>:
    1f22:	13 c0 b3    	mov.b     #0x1, w3
    1f24:	c3 77 9f    	mov.b     w3, [w15-76]
    1f26:	41 c5 20    	mov.w     #0xc54, w1
    1f28:	10 00 37    	bra       0x1f4a <.L77>

00001f2a <.L78>:
    1f2a:	02 00 fb    	se        w2, w0
    1f2c:	43 00 dd    	sl.w      w0, #0x3, w0
    1f2e:	00 80 40    	add.w     w1, w0, w0
    1f30:	30 02 be    	mov.d     [w0++], w4
    1f32:	20 03 be    	mov.d     [w0--], w6
    1f34:	5f b4 97    	mov.w     [w15-22], w8
    1f36:	ef b4 97    	mov.w     [w15-20], w9
    1f38:	7f b5 97    	mov.w     [w15-18], w10
    1f3a:	8f bd 97    	mov.w     [w15-16], w11
    1f3c:	04 40 e1    	cp.w      w8, w4
    1f3e:	05 c8 e1    	cpb.w     w9, w5
    1f40:	06 d0 e1    	cpb.w     w10, w6
    1f42:	07 d8 e1    	cpb.w     w11, w7
    1f44:	3d 00 39    	bra       NC, 0x1fc0 <.L72>
    1f46:	02 41 e8    	inc.b     w2, w2
    1f48:	c2 77 9f    	mov.b     w2, [w15-76]

00001f4a <.L77>:
    1f4a:	4f 71 97    	mov.b     [w15-76], w2
    1f4c:	f4 4f 51    	sub.b     w2, #0x14, [w15]
    1f4e:	ed ff 3a    	bra       NZ, 0x1f2a <.L78>
    1f50:	37 00 37    	bra       0x1fc0 <.L72>

00001f52 <.L75>:
    1f52:	13 c0 b3    	mov.b     #0x1, w3
    1f54:	c3 77 9f    	mov.b     w3, [w15-76]
    1f56:	04 01 20    	mov.w     #0x10, w4
    1f58:	05 00 20    	mov.w     #0x0, w5
    1f5a:	60 33 b8    	mul.uu    w6, #0x0, w6
    1f5c:	12 00 37    	bra       0x1f82 <.L79>

00001f5e <.L80>:
    1f5e:	5f b4 97    	mov.w     [w15-22], w8
    1f60:	ef b4 97    	mov.w     [w15-20], w9
    1f62:	7f b5 97    	mov.w     [w15-18], w10
    1f64:	8f bd 97    	mov.w     [w15-16], w11
    1f66:	04 40 e1    	cp.w      w8, w4
    1f68:	05 c8 e1    	cpb.w     w9, w5
    1f6a:	06 d0 e1    	cpb.w     w10, w6
    1f6c:	07 d8 e1    	cpb.w     w11, w7
    1f6e:	28 00 39    	bra       NC, 0x1fc0 <.L72>
    1f70:	49 00 20    	mov.w     #0x4, w9

00001f72 <.LB738>:
    1f72:	04 02 d0    	sl.w      w4, w4
    1f74:	85 82 d2    	rlc.w     w5, w5
    1f76:	06 83 d2    	rlc.w     w6, w6
    1f78:	87 83 d2    	rlc.w     w7, w7
    1f7a:	89 04 e9    	dec.w     w9, w9
    1f7c:	fa ff 3a    	bra       NZ, 0x1f72 <.LB738>
    1f7e:	00 40 e8    	inc.b     w0, w0
    1f80:	c0 77 9f    	mov.b     w0, [w15-76]

00001f82 <.L79>:
    1f82:	4f 70 97    	mov.b     [w15-76], w0
    1f84:	f0 4f 50    	sub.b     w0, #0x10, [w15]
    1f86:	eb ff 3a    	bra       NZ, 0x1f5e <.L80>
    1f88:	1b 00 37    	bra       0x1fc0 <.L72>

00001f8a <.L74>:
    1f8a:	13 c0 b3    	mov.b     #0x1, w3
    1f8c:	c3 77 9f    	mov.b     w3, [w15-76]
    1f8e:	84 00 20    	mov.w     #0x8, w4
    1f90:	05 00 20    	mov.w     #0x0, w5
    1f92:	60 33 b8    	mul.uu    w6, #0x0, w6
    1f94:	12 00 37    	bra       0x1fba <.L81>

00001f96 <.L82>:
    1f96:	5f b4 97    	mov.w     [w15-22], w8
    1f98:	ef b4 97    	mov.w     [w15-20], w9
    1f9a:	7f b5 97    	mov.w     [w15-18], w10
    1f9c:	8f bd 97    	mov.w     [w15-16], w11
    1f9e:	04 40 e1    	cp.w      w8, w4
    1fa0:	05 c8 e1    	cpb.w     w9, w5
    1fa2:	06 d0 e1    	cpb.w     w10, w6
    1fa4:	07 d8 e1    	cpb.w     w11, w7
    1fa6:	0c 00 39    	bra       NC, 0x1fc0 <.L72>
    1fa8:	39 00 20    	mov.w     #0x3, w9

00001faa <.LB762>:
    1faa:	04 02 d0    	sl.w      w4, w4
    1fac:	85 82 d2    	rlc.w     w5, w5
    1fae:	06 83 d2    	rlc.w     w6, w6
    1fb0:	87 83 d2    	rlc.w     w7, w7
    1fb2:	89 04 e9    	dec.w     w9, w9
    1fb4:	fa ff 3a    	bra       NZ, 0x1faa <.LB762>
    1fb6:	00 40 e8    	inc.b     w0, w0
    1fb8:	c0 77 9f    	mov.b     w0, [w15-76]

00001fba <.L81>:
    1fba:	4f 70 97    	mov.b     [w15-76], w0
    1fbc:	f5 4f 50    	sub.b     w0, #0x15, [w15]
    1fbe:	eb ff 3a    	bra       NZ, 0x1f96 <.L82>

00001fc0 <.L72>:
    1fc0:	4f 75 97    	mov.b     [w15-76], w10
    1fc2:	8a 02 fb    	se        w10, w5
    1fc4:	ef ad 97    	mov.w     [w15-36], w11
    1fc6:	8b 8f 52    	sub.w     w5, w11, [w15]
    1fc8:	02 00 3d    	bra       GE, 0x1fce <.L83>
    1fca:	cb 77 9f    	mov.b     w11, [w15-76]
    1fcc:	04 00 37    	bra       0x1fd6 <.L84>

00001fce <.L83>:
    1fce:	6f a8 97    	mov.w     [w15-36], w0
    1fd0:	85 0f 50    	sub.w     w0, w5, [w15]
    1fd2:	01 00 3d    	bra       GE, 0x1fd6 <.L84>
    1fd4:	e5 af 9f    	mov.w     w5, [w15-36]

00001fd6 <.L84>:
    1fd6:	cf a8 97    	mov.w     [w15-40], w1
    1fd8:	e0 8f 50    	sub.w     w1, #0x0, [w15]
    1fda:	04 00 32    	bra       Z, 0x1fe4 <.L85>
    1fdc:	63 02 67    	and.w     w14, #0x3, w4
    1fde:	02 00 32    	bra       Z, 0x1fe4 <.L85>
    1fe0:	81 00 e9    	dec.w     w1, w1
    1fe2:	c1 af 9f    	mov.w     w1, [w15-40]

00001fe4 <.L85>:
    1fe4:	04 00 24    	mov.w     #0x4000, w4
    1fe6:	04 02 67    	and.w     w14, w4, w4
    1fe8:	09 00 32    	bra       Z, 0x1ffc <.L86>
    1fea:	4f a9 97    	mov.w     [w15-40], w2
    1fec:	ef a9 97    	mov.w     [w15-36], w3
    1fee:	83 0f 51    	sub.w     w2, w3, [w15]
    1ff0:	03 00 34    	bra       LE, 0x1ff8 <.L138>
    1ff2:	03 01 51    	sub.w     w2, w3, w2
    1ff4:	c2 af 9f    	mov.w     w2, [w15-40]
    1ff6:	02 00 37    	bra       0x1ffc <.L86>

00001ff8 <.L138>:
    1ff8:	00 02 eb    	clr.w     w4
    1ffa:	c4 af 9f    	mov.w     w4, [w15-40]

00001ffc <.L86>:
    1ffc:	4f 73 97    	mov.b     [w15-76], w6
    1ffe:	86 02 fb    	se        w6, w5
    2000:	80 03 eb    	clr.w     w7
    2002:	a7 af 9f    	mov.w     w7, [w15-44]
    2004:	4f ac 97    	mov.w     [w15-40], w8
    2006:	85 0f 54    	sub.w     w8, w5, [w15]
    2008:	02 00 34    	bra       LE, 0x200e <.L87>
    200a:	85 02 54    	sub.w     w8, w5, w5
    200c:	a5 af 9f    	mov.w     w5, [w15-44]

0000200e <.L87>:
    200e:	64 02 67    	and.w     w14, #0x4, w4
    2010:	4c 00 32    	bra       Z, 0x20aa <.L88>
    2012:	e2 02 67    	and.w     w14, #0x2, w5
    2014:	61 03 67    	and.w     w14, #0x1, w6
    2016:	e0 8f 52    	sub.w     w5, #0x0, [w15]
    2018:	1b 00 32    	bra       Z, 0x2050 <.L89>
    201a:	cf b4 97    	mov.w     [w15-24], w9
    201c:	39 02 90    	mov.w     [w9+6], w4
    201e:	04 04 b2    	and.w     #0x40, w4
    2020:	09 00 32    	bra       Z, 0x2034 <.L90>
    2022:	99 03 78    	mov.w     [w9], w7
    2024:	b5 c2 b3    	mov.b     #0x2b, w5
    2026:	e0 0f 53    	sub.w     w6, #0x0, [w15]
    2028:	01 00 32    	bra       Z, 0x202c <.L91>
    202a:	85 c2 e8    	inc2.b    w5, w5

0000202c <.L91>:
    202c:	85 4b 78    	mov.b     w5, [w7]
    202e:	4f b5 97    	mov.w     [w15-24], w10
    2030:	07 0d e8    	inc.w     w7, [w10]
    2032:	0a 00 37    	bra       0x2048 <.L92>

00002034 <.L90>:
    2034:	d5 02 20    	mov.w     #0x2d, w5
    2036:	e0 0f 53    	sub.w     w6, #0x0, [w15]
    2038:	01 00 3a    	bra       NZ, 0x203c <.L93>
    203a:	85 82 e9    	dec2.w    w5, w5

0000203c <.L93>:
    203c:	cf b0 97    	mov.w     [w15-24], w1
    203e:	05 00 78    	mov.w     w5, w0
    2040:	1e fd 07    	rcall     0x1a7e <_fputc>
    2042:	00 02 78    	mov.w     w0, w4
    2044:	e1 0f 42    	add.w     w4, #0x1, [w15]
    2046:	18 00 32    	bra       Z, 0x2078 <.L94>

00002048 <.L92>:
    2048:	bf b5 97    	mov.w     [w15-26], w11
    204a:	8b 05 e8    	inc.w     w11, w11
    204c:	bb b7 9f    	mov.w     w11, [w15-26]
    204e:	14 00 37    	bra       0x2078 <.L94>

00002050 <.L89>:
    2050:	e0 0f 53    	sub.w     w6, #0x0, [w15]
    2052:	12 00 32    	bra       Z, 0x2078 <.L94>
    2054:	4f b0 97    	mov.w     [w15-24], w0
    2056:	30 02 90    	mov.w     [w0+6], w4
    2058:	04 04 b2    	and.w     #0x40, w4
    205a:	05 00 32    	bra       Z, 0x2066 <.L95>
    205c:	90 02 78    	mov.w     [w0], w5
    205e:	03 c2 b3    	mov.b     #0x20, w3
    2060:	83 4a 78    	mov.b     w3, [w5]
    2062:	05 08 e8    	inc.w     w5, [w0]
    2064:	06 00 37    	bra       0x2072 <.L96>

00002066 <.L95>:
    2066:	cf b0 97    	mov.w     [w15-24], w1
    2068:	00 02 20    	mov.w     #0x20, w0
    206a:	09 fd 07    	rcall     0x1a7e <_fputc>
    206c:	00 02 78    	mov.w     w0, w4
    206e:	e1 0f 42    	add.w     w4, #0x1, [w15]
    2070:	03 00 32    	bra       Z, 0x2078 <.L94>

00002072 <.L96>:
    2072:	bf b0 97    	mov.w     [w15-26], w1
    2074:	81 00 e8    	inc.w     w1, w1
    2076:	b1 b7 9f    	mov.w     w1, [w15-26]

00002078 <.L94>:
    2078:	2f a9 97    	mov.w     [w15-44], w2
    207a:	e0 0f 51    	sub.w     w2, #0x0, [w15]
    207c:	11 01 32    	bra       Z, 0x22a0 <.L149>
    207e:	08 c3 b3    	mov.b     #0x30, w8
    2080:	82 06 78    	mov.w     w2, w13
    2082:	4f b6 97    	mov.w     [w15-24], w12

00002084 <.L151>:
    2084:	3c 00 90    	mov.w     [w12+6], w0
    2086:	00 04 b2    	and.w     #0x40, w0
    2088:	04 00 32    	bra       Z, 0x2092 <.L98>
    208a:	1c 00 78    	mov.w     [w12], w0
    208c:	08 48 78    	mov.b     w8, [w0]
    208e:	00 0e e8    	inc.w     w0, [w12]
    2090:	05 00 37    	bra       0x209c <.L99>

00002092 <.L98>:
    2092:	8c 00 78    	mov.w     w12, w1
    2094:	00 03 20    	mov.w     #0x30, w0
    2096:	f3 fc 07    	rcall     0x1a7e <_fputc>
    2098:	e1 0f 40    	add.w     w0, #0x1, [w15]
    209a:	03 00 32    	bra       Z, 0x20a2 <.L100>

0000209c <.L99>:
    209c:	bf b1 97    	mov.w     [w15-26], w3
    209e:	83 01 e8    	inc.w     w3, w3
    20a0:	b3 b7 9f    	mov.w     w3, [w15-26]

000020a2 <.L100>:
    20a2:	8d 06 e9    	dec.w     w13, w13
    20a4:	ef ff 3a    	bra       NZ, 0x2084 <.L151>
    20a6:	ad af 9f    	mov.w     w13, [w15-44]
    20a8:	fb 00 37    	bra       0x22a0 <.L149>

000020aa <.L88>:
    20aa:	2f aa 97    	mov.w     [w15-44], w4
    20ac:	e0 0f 52    	sub.w     w4, #0x0, [w15]
    20ae:	17 00 32    	bra       Z, 0x20de <.L102>
    20b0:	68 02 67    	and.w     w14, #0x8, w4
    20b2:	15 00 3a    	bra       NZ, 0x20de <.L102>
    20b4:	08 c2 b3    	mov.b     #0x20, w8
    20b6:	af ae 97    	mov.w     [w15-44], w13
    20b8:	4f b6 97    	mov.w     [w15-24], w12

000020ba <.L152>:
    20ba:	3c 00 90    	mov.w     [w12+6], w0
    20bc:	00 04 b2    	and.w     #0x40, w0
    20be:	04 00 32    	bra       Z, 0x20c8 <.L103>
    20c0:	1c 00 78    	mov.w     [w12], w0
    20c2:	08 48 78    	mov.b     w8, [w0]
    20c4:	00 0e e8    	inc.w     w0, [w12]
    20c6:	05 00 37    	bra       0x20d2 <.L104>

000020c8 <.L103>:
    20c8:	8c 00 78    	mov.w     w12, w1
    20ca:	00 02 20    	mov.w     #0x20, w0
    20cc:	d8 fc 07    	rcall     0x1a7e <_fputc>
    20ce:	e1 0f 40    	add.w     w0, #0x1, [w15]
    20d0:	03 00 32    	bra       Z, 0x20d8 <.L105>

000020d2 <.L104>:
    20d2:	bf b2 97    	mov.w     [w15-26], w5
    20d4:	85 02 e8    	inc.w     w5, w5
    20d6:	b5 b7 9f    	mov.w     w5, [w15-26]

000020d8 <.L105>:
    20d8:	8d 06 e9    	dec.w     w13, w13
    20da:	ef ff 3a    	bra       NZ, 0x20ba <.L152>
    20dc:	ad af 9f    	mov.w     w13, [w15-44]

000020de <.L102>:
    20de:	e2 02 67    	and.w     w14, #0x2, w5
    20e0:	61 03 67    	and.w     w14, #0x1, w6
    20e2:	e0 8f 52    	sub.w     w5, #0x0, [w15]
    20e4:	1c 00 32    	bra       Z, 0x211e <.L107>
    20e6:	cf b3 97    	mov.w     [w15-24], w7
    20e8:	37 02 90    	mov.w     [w7+6], w4
    20ea:	04 04 b2    	and.w     #0x40, w4
    20ec:	0a 00 32    	bra       Z, 0x2102 <.L108>
    20ee:	07 04 78    	mov.w     w7, w8
    20f0:	98 03 78    	mov.w     [w8], w7
    20f2:	b5 c2 b3    	mov.b     #0x2b, w5
    20f4:	e0 0f 53    	sub.w     w6, #0x0, [w15]
    20f6:	01 00 32    	bra       Z, 0x20fa <.L109>
    20f8:	85 c2 e8    	inc2.b    w5, w5

000020fa <.L109>:
    20fa:	85 4b 78    	mov.b     w5, [w7]
    20fc:	cf b4 97    	mov.w     [w15-24], w9
    20fe:	87 0c e8    	inc.w     w7, [w9]
    2100:	0a 00 37    	bra       0x2116 <.L110>

00002102 <.L108>:
    2102:	d5 02 20    	mov.w     #0x2d, w5
    2104:	e0 0f 53    	sub.w     w6, #0x0, [w15]
    2106:	01 00 3a    	bra       NZ, 0x210a <.L111>
    2108:	85 82 e9    	dec2.w    w5, w5

0000210a <.L111>:
    210a:	cf b0 97    	mov.w     [w15-24], w1
    210c:	05 00 78    	mov.w     w5, w0
    210e:	b7 fc 07    	rcall     0x1a7e <_fputc>
    2110:	00 02 78    	mov.w     w0, w4
    2112:	e1 0f 42    	add.w     w4, #0x1, [w15]
    2114:	c5 00 32    	bra       Z, 0x22a0 <.L149>

00002116 <.L110>:
    2116:	3f b5 97    	mov.w     [w15-26], w10
    2118:	0a 05 e8    	inc.w     w10, w10
    211a:	ba b7 9f    	mov.w     w10, [w15-26]
    211c:	c1 00 37    	bra       0x22a0 <.L149>

0000211e <.L107>:
    211e:	e0 0f 53    	sub.w     w6, #0x0, [w15]
    2120:	bf 00 32    	bra       Z, 0x22a0 <.L149>
    2122:	cf b5 97    	mov.w     [w15-24], w11
    2124:	3b 02 90    	mov.w     [w11+6], w4
    2126:	04 04 b2    	and.w     #0x40, w4
    2128:	05 00 32    	bra       Z, 0x2134 <.L112>
    212a:	9b 02 78    	mov.w     [w11], w5
    212c:	03 c2 b3    	mov.b     #0x20, w3
    212e:	83 4a 78    	mov.b     w3, [w5]
    2130:	85 0d e8    	inc.w     w5, [w11]
    2132:	06 00 37    	bra       0x2140 <.L113>

00002134 <.L112>:
    2134:	cf b0 97    	mov.w     [w15-24], w1
    2136:	00 02 20    	mov.w     #0x20, w0
    2138:	a2 fc 07    	rcall     0x1a7e <_fputc>
    213a:	00 02 78    	mov.w     w0, w4
    213c:	e1 0f 42    	add.w     w4, #0x1, [w15]
    213e:	b0 00 32    	bra       Z, 0x22a0 <.L149>

00002140 <.L113>:
    2140:	3f b0 97    	mov.w     [w15-26], w0
    2142:	00 00 e8    	inc.w     w0, w0
    2144:	b0 b7 9f    	mov.w     w0, [w15-26]
    2146:	ac 00 37    	bra       0x22a0 <.L149>

00002148 <.L127>:
    2148:	0e 07 e9    	dec.w     w14, w14
    214a:	00 04 20    	mov.w     #0x40, w0
    214c:	bf a8 97    	mov.w     [w15-42], w1
    214e:	80 8f 50    	sub.w     w1, w0, [w15]
    2150:	82 00 32    	bra       Z, 0x2256 <.L117>
    2152:	03 00 3c    	bra       GT, 0x215a <.L119>
    2154:	e0 8f 50    	sub.w     w1, #0x0, [w15]
    2156:	08 00 32    	bra       Z, 0x2168 <.L116>
    2158:	8e 00 37    	bra       0x2276 <.L115>

0000215a <.L119>:
    215a:	00 08 20    	mov.w     #0x80, w0
    215c:	3f a9 97    	mov.w     [w15-42], w2
    215e:	80 0f 51    	sub.w     w2, w0, [w15]
    2160:	65 00 32    	bra       Z, 0x222c <.L118>
    2162:	00 0c 20    	mov.w     #0xc0, w0
    2164:	80 0f 51    	sub.w     w2, w0, [w15]
    2166:	87 00 3a    	bra       NZ, 0x2276 <.L115>

00002168 <.L116>:
    2168:	43 70 dd    	sl.w      w14, #0x3, w0
    216a:	cf a9 97    	mov.w     [w15-40], w3
    216c:	e0 8f 51    	sub.w     w3, #0x0, [w15]
    216e:	2a 00 3d    	bra       GE, 0x21c4 <.L120>
    2170:	44 c5 20    	mov.w     #0xc54, w4
    2172:	00 00 42    	add.w     w4, w0, w0
    2174:	30 04 be    	mov.d     [w0++], w8
    2176:	20 05 be    	mov.d     [w0--], w10
    2178:	e8 af 9f    	mov.w     w8, [w15-36]
    217a:	f9 af 9f    	mov.w     w9, [w15-34]
    217c:	8a b7 9f    	mov.w     w10, [w15-32]
    217e:	9b b7 9f    	mov.w     w11, [w15-30]
    2180:	08 02 be    	mov.d     w8, w4
    2182:	0a 03 be    	mov.d     w10, w6
    2184:	5f b0 97    	mov.w     [w15-22], w0
    2186:	ef b0 97    	mov.w     [w15-20], w1
    2188:	7f b1 97    	mov.w     [w15-18], w2
    218a:	8f b9 97    	mov.w     [w15-16], w3
    218c:	ed 01 07    	rcall     0x2568 <___udivdi3>
    218e:	c0 77 9f    	mov.b     w0, [w15-76]
    2190:	00 04 fb    	se        w0, w8
    2192:	cf c4 de    	asr.w     w8, #0xf, w9
    2194:	09 05 78    	mov.w     w9, w10
    2196:	8a 05 78    	mov.w     w10, w11
    2198:	6f aa 97    	mov.w     [w15-36], w4
    219a:	ff aa 97    	mov.w     [w15-34], w5
    219c:	0f b3 97    	mov.w     [w15-32], w6
    219e:	9f b3 97    	mov.w     [w15-30], w7
    21a0:	08 00 be    	mov.d     w8, w0
    21a2:	0a 01 be    	mov.d     w10, w2
    21a4:	4d 02 07    	rcall     0x2640 <___muldi3>
    21a6:	02 03 be    	mov.d     w2, w6
    21a8:	00 02 be    	mov.d     w0, w4
    21aa:	5f b0 97    	mov.w     [w15-22], w0
    21ac:	ef b0 97    	mov.w     [w15-20], w1
    21ae:	7f b1 97    	mov.w     [w15-18], w2
    21b0:	8f b9 97    	mov.w     [w15-16], w3
    21b2:	04 00 50    	sub.w     w0, w4, w0
    21b4:	85 80 58    	subb.w    w1, w5, w1
    21b6:	06 01 59    	subb.w    w2, w6, w2
    21b8:	87 81 59    	subb.w    w3, w7, w3
    21ba:	d0 b7 9f    	mov.w     w0, [w15-22]
    21bc:	e1 b7 9f    	mov.w     w1, [w15-20]
    21be:	f2 b7 9f    	mov.w     w2, [w15-18]
    21c0:	83 bf 9f    	mov.w     w3, [w15-16]
    21c2:	30 00 37    	bra       0x2224 <.L121>

000021c4 <.L120>:
    21c4:	df 98 97    	mov.w     [w15-70], w1
    21c6:	e0 8f 50    	sub.w     w1, #0x0, [w15]
    21c8:	1f 00 32    	bra       Z, 0x2208 <.L122>
    21ca:	5f b6 97    	mov.w     [w15-22], w12
    21cc:	ef b6 97    	mov.w     [w15-20], w13
    21ce:	42 c5 20    	mov.w     #0xc54, w2
    21d0:	00 00 41    	add.w     w2, w0, w0
    21d2:	30 04 be    	mov.d     [w0++], w8
    21d4:	20 05 be    	mov.d     [w0--], w10
    21d6:	08 01 be    	mov.d     w8, w2
    21d8:	0c 00 be    	mov.d     w12, w0
    21da:	7b f9 07    	rcall     0x14d2 <___udivsi3>
    21dc:	c0 77 9f    	mov.b     w0, [w15-76]
    21de:	00 00 fb    	se        w0, w0
    21e0:	cf 80 de    	asr.w     w0, #0xf, w1
    21e2:	08 01 be    	mov.d     w8, w2
    21e4:	2d 01 07    	rcall     0x2440 <___mulp32eds3>
    21e6:	00 02 56    	sub.w     w12, w0, w4
    21e8:	81 82 5e    	subb.w    w13, w1, w5
    21ea:	a4 a7 9f    	mov.w     w4, [w15-60]
    21ec:	b5 a7 9f    	mov.w     w5, [w15-58]
    21ee:	80 02 eb    	clr.w     w5
    21f0:	c5 a7 9f    	mov.w     w5, [w15-56]
    21f2:	00 03 eb    	clr.w     w6
    21f4:	d6 a7 9f    	mov.w     w6, [w15-54]
    21f6:	2f a4 97    	mov.w     [w15-60], w8
    21f8:	bf a4 97    	mov.w     [w15-58], w9
    21fa:	4f a5 97    	mov.w     [w15-56], w10
    21fc:	df a5 97    	mov.w     [w15-54], w11
    21fe:	d8 b7 9f    	mov.w     w8, [w15-22]
    2200:	e9 b7 9f    	mov.w     w9, [w15-20]
    2202:	fa b7 9f    	mov.w     w10, [w15-18]
    2204:	8b bf 9f    	mov.w     w11, [w15-16]
    2206:	0e 00 37    	bra       0x2224 <.L121>

00002208 <.L122>:
    2208:	49 c5 20    	mov.w     #0xc54, w9
    220a:	69 01 78    	mov.w     [w9+w0], w2
    220c:	5f b5 97    	mov.w     [w15-22], w10
    220e:	81 1f 78    	mov.w     w1, [w15++]
    2210:	11 00 09    	repeat    #0x11
    2212:	02 85 d8    	div.uw    w10, w2
    2214:	cf 00 78    	mov.w     [--w15], w1
    2216:	a2 00 20    	mov.w     #0xa, w2
    2218:	81 1f 78    	mov.w     w1, [w15++]
    221a:	11 00 09    	repeat    #0x11
    221c:	02 80 d8    	div.uw    w0, w2
    221e:	01 00 78    	mov.w     w1, w0
    2220:	cf 00 78    	mov.w     [--w15], w1
    2222:	c0 77 9f    	mov.b     w0, [w15-76]

00002224 <.L121>:
    2224:	cf 75 97    	mov.b     [w15-76], w11
    2226:	0b 43 b0    	add.b     #0x30, w11
    2228:	cb 77 9f    	mov.b     w11, [w15-76]
    222a:	25 00 37    	bra       0x2276 <.L115>

0000222c <.L118>:
    222c:	44 cf 20    	mov.w     #0xcf4, w4
    222e:	4f 98 97    	mov.w     [w15-72], w0
    2230:	e0 0f 50    	sub.w     w0, #0x0, [w15]
    2232:	01 00 3a    	bra       NZ, 0x2236 <.L123>
    2234:	54 d0 20    	mov.w     #0xd05, w4

00002236 <.L123>:
    2236:	42 70 dd    	sl.w      w14, #0x2, w0
    2238:	5f b4 97    	mov.w     [w15-22], w8
    223a:	ef b4 97    	mov.w     [w15-20], w9
    223c:	7f b5 97    	mov.w     [w15-18], w10
    223e:	8f bd 97    	mov.w     [w15-16], w11
    2240:	80 02 78    	mov.w     w0, w5

00002242 <.LB1192>:
    2242:	85 02 e9    	dec.w     w5, w5
    2244:	05 00 33    	bra       N, 0x2250 <.LE1192>
    2246:	8b 05 d1    	lsr.w     w11, w11
    2248:	0a 85 d3    	rrc.w     w10, w10
    224a:	89 84 d3    	rrc.w     w9, w9
    224c:	08 84 d3    	rrc.w     w8, w8
    224e:	f9 ff 37    	bra       0x2242 <.LB1192>

00002250 <.LE1192>:
    2250:	6f 00 64    	and.w     w8, #0xf, w0
    2252:	64 40 78    	mov.b     [w4+w0], w0
    2254:	0f 00 37    	bra       0x2274 <.L179>

00002256 <.L117>:
    2256:	63 70 b9    	mul.su    w14, #0x3, w0
    2258:	5f b4 97    	mov.w     [w15-22], w8
    225a:	ef b4 97    	mov.w     [w15-20], w9
    225c:	7f b5 97    	mov.w     [w15-18], w10
    225e:	8f bd 97    	mov.w     [w15-16], w11
    2260:	00 02 78    	mov.w     w0, w4

00002262 <.LB1203>:
    2262:	04 02 e9    	dec.w     w4, w4
    2264:	05 00 33    	bra       N, 0x2270 <.LE1203>
    2266:	8b 05 d1    	lsr.w     w11, w11
    2268:	0a 85 d3    	rrc.w     w10, w10
    226a:	89 84 d3    	rrc.w     w9, w9
    226c:	08 84 d3    	rrc.w     w8, w8
    226e:	f9 ff 37    	bra       0x2262 <.LB1203>

00002270 <.LE1203>:
    2270:	67 40 64    	and.b     w8, #0x7, w0
    2272:	00 43 b0    	add.b     #0x30, w0

00002274 <.L179>:
    2274:	c0 77 9f    	mov.b     w0, [w15-76]

00002276 <.L115>:
    2276:	cf b2 97    	mov.w     [w15-24], w5
    2278:	35 00 90    	mov.w     [w5+6], w0
    227a:	00 04 b2    	and.w     #0x40, w0
    227c:	07 00 32    	bra       Z, 0x228c <.L124>
    227e:	15 01 78    	mov.w     [w5], w2
    2280:	4f 70 97    	mov.b     [w15-76], w0
    2282:	00 49 78    	mov.b     w0, [w2]
    2284:	82 0a e8    	inc.w     w2, [w5]
    2286:	e0 4f 50    	sub.b     w0, #0x0, [w15]
    2288:	07 00 3a    	bra       NZ, 0x2298 <.L125>
    228a:	12 00 37    	bra       0x22b0 <.L163>

0000228c <.L124>:
    228c:	4f 73 97    	mov.b     [w15-76], w6
    228e:	06 00 fb    	se        w6, w0
    2290:	cf b0 97    	mov.w     [w15-24], w1
    2292:	f5 fb 07    	rcall     0x1a7e <_fputc>
    2294:	e1 0f 40    	add.w     w0, #0x1, [w15]
    2296:	0c 00 32    	bra       Z, 0x22b0 <.L163>

00002298 <.L125>:
    2298:	bf b3 97    	mov.w     [w15-26], w7
    229a:	87 03 e8    	inc.w     w7, w7
    229c:	b7 b7 9f    	mov.w     w7, [w15-26]
    229e:	08 00 37    	bra       0x22b0 <.L163>

000022a0 <.L149>:
    22a0:	70 04 67    	and.w     w14, #0x10, w8
    22a2:	d8 9f 9f    	mov.w     w8, [w15-70]
    22a4:	8e 04 78    	mov.w     w14, w9
    22a6:	09 02 b2    	and.w     #0x20, w9
    22a8:	c9 9f 9f    	mov.w     w9, [w15-72]
    22aa:	0e 05 78    	mov.w     w14, w10
    22ac:	ca af 9f    	mov.w     w10, [w15-40]
    22ae:	6f af 97    	mov.w     [w15-36], w14

000022b0 <.L163>:
    22b0:	e0 0f 57    	sub.w     w14, #0x0, [w15]
    22b2:	4a ff 3a    	bra       NZ, 0x2148 <.L127>
    22b4:	4f af 97    	mov.w     [w15-40], w14
    22b6:	68 01 67    	and.w     w14, #0x8, w2
    22b8:	18 00 32    	bra       Z, 0x22ea <.L161>
    22ba:	af ad 97    	mov.w     [w15-44], w11
    22bc:	e0 8f 55    	sub.w     w11, #0x0, [w15]
    22be:	15 00 34    	bra       LE, 0x22ea <.L161>
    22c0:	08 c2 b3    	mov.b     #0x20, w8
    22c2:	8b 06 78    	mov.w     w11, w13
    22c4:	3f b7 97    	mov.w     [w15-26], w14
    22c6:	4f b6 97    	mov.w     [w15-24], w12

000022c8 <.L150>:
    22c8:	3c 00 90    	mov.w     [w12+6], w0
    22ca:	00 04 b2    	and.w     #0x40, w0
    22cc:	04 00 32    	bra       Z, 0x22d6 <.L128>
    22ce:	1c 00 78    	mov.w     [w12], w0
    22d0:	08 48 78    	mov.b     w8, [w0]
    22d2:	00 0e e8    	inc.w     w0, [w12]
    22d4:	05 00 37    	bra       0x22e0 <.L129>

000022d6 <.L128>:
    22d6:	8c 00 78    	mov.w     w12, w1
    22d8:	00 02 20    	mov.w     #0x20, w0
    22da:	d1 fb 07    	rcall     0x1a7e <_fputc>
    22dc:	e1 0f 40    	add.w     w0, #0x1, [w15]
    22de:	01 00 32    	bra       Z, 0x22e2 <.L130>

000022e0 <.L129>:
    22e0:	0e 07 e8    	inc.w     w14, w14

000022e2 <.L130>:
    22e2:	8d 06 e9    	dec.w     w13, w13
    22e4:	f1 ff 3a    	bra       NZ, 0x22c8 <.L150>
    22e6:	0e 00 78    	mov.w     w14, w0

000022e8 <.L180>:
    22e8:	b0 b7 9f    	mov.w     w0, [w15-26]

000022ea <.L161>:
    22ea:	df a8 97    	mov.w     [w15-38], w1
    22ec:	91 42 78    	mov.b     [w1], w5
    22ee:	c5 77 9f    	mov.b     w5, [w15-76]
    22f0:	e0 cf 52    	sub.b     w5, #0x0, [w15]
    22f2:	3a fc 3a    	bra       NZ, 0x1b68 <.L132>

000022f4 <.L26>:
    22f4:	3f b0 97    	mov.w     [w15-26], w0
    22f6:	4f 07 78    	mov.w     [--w15], w14
    22f8:	4f 06 be    	mov.d     [--w15], w12
    22fa:	4f 05 be    	mov.d     [--w15], w10
    22fc:	4f 04 be    	mov.d     [--w15], w8
    22fe:	0f 04 b1    	sub.w     #0x40, w15
    2300:	00 00 06    	return    

00002302 <_fflush>:
    2302:	88 1f 78    	mov.w     w8, [w15++]
    2304:	00 04 78    	mov.w     w0, w8
    2306:	38 00 90    	mov.w     [w8+6], w0
    2308:	80 00 78    	mov.w     w0, w1
    230a:	11 20 b2    	and.w     #0x201, w1
    230c:	e1 8f 50    	sub.w     w1, #0x1, [w15]
    230e:	05 00 3a    	bra       NZ, 0x231a <.L2>
    2310:	80 00 eb    	clr.w     w1
    2312:	11 04 98    	mov.w     w1, [w8+2]
    2314:	a8 00 90    	mov.w     [w8+4], w1
    2316:	01 0c 78    	mov.w     w1, [w8]
    2318:	19 00 37    	bra       0x234c <.L12>

0000231a <.L2>:
    231a:	00 01 78    	mov.w     w0, w2
    231c:	22 20 b2    	and.w     #0x202, w2
    231e:	00 00 eb    	clr.w     w0
    2320:	21 20 20    	mov.w     #0x202, w1
    2322:	81 0f 51    	sub.w     w2, w1, [w15]
    2324:	16 00 3a    	bra       NZ, 0x2352 <.L3>
    2326:	a8 00 90    	mov.w     [w8+4], w1
    2328:	80 8f 50    	sub.w     w1, w0, [w15]
    232a:	13 00 32    	bra       Z, 0x2352 <.L3>
    232c:	18 01 90    	mov.w     [w8+2], w2
    232e:	80 0f 51    	sub.w     w2, w0, [w15]
    2330:	10 00 32    	bra       Z, 0x2352 <.L3>
    2332:	48 00 90    	mov.w     [w8+8], w0
    2334:	89 03 07    	rcall     0x2a48 <_write>
    2336:	98 00 90    	mov.w     [w8+2], w1
    2338:	81 0f 50    	sub.w     w0, w1, [w15]
    233a:	03 00 32    	bra       Z, 0x2342 <.L4>
    233c:	38 00 90    	mov.w     [w8+6], w0
    233e:	00 03 b3    	ior.w     #0x30, w0
    2340:	30 04 98    	mov.w     w0, [w8+6]

00002342 <.L4>:
    2342:	00 00 eb    	clr.w     w0
    2344:	10 04 98    	mov.w     w0, [w8+2]
    2346:	28 00 90    	mov.w     [w8+4], w0
    2348:	00 0c 78    	mov.w     w0, [w8]
    234a:	38 00 90    	mov.w     [w8+6], w0

0000234c <.L12>:
    234c:	00 02 b2    	and.w     #0x20, w0
    234e:	01 00 32    	bra       Z, 0x2352 <.L3>
    2350:	00 80 eb    	setm.w    w0

00002352 <.L3>:
    2352:	4f 04 78    	mov.w     [--w15], w8
    2354:	00 00 06    	return    

00002356 <__flsbuf>:
    2356:	02 00 fa    	lnk       #0x2
    2358:	88 9f be    	mov.d     w8, [w15++]
    235a:	a0 ff 9f    	mov.b     w0, [w15-6]
    235c:	01 04 78    	mov.w     w1, w8
    235e:	38 00 90    	mov.w     [w8+6], w0
    2360:	80 00 78    	mov.w     w0, w1
    2362:	01 04 b2    	and.w     #0x40, w1
    2364:	33 00 3a    	bra       NZ, 0x23cc <.L7>
    2366:	e2 00 60    	and.w     w0, #0x2, w1
    2368:	05 00 3a    	bra       NZ, 0x2374 <.L4>
    236a:	00 03 b3    	ior.w     #0x30, w0
    236c:	30 04 98    	mov.w     w0, [w8+6]
    236e:	11 04 98    	mov.w     w1, [w8+2]
    2370:	00 80 eb    	setm.w    w0
    2372:	2e 00 37    	bra       0x23d0 <.L3>

00002374 <.L4>:
    2374:	d8 04 90    	mov.w     [w8+10], w9
    2376:	e0 8f 54    	sub.w     w9, #0x0, [w15]
    2378:	06 00 3a    	bra       NZ, 0x2386 <.L5>
    237a:	12 00 20    	mov.w     #0x1, w2
    237c:	e6 80 57    	sub.w     w15, #0x6, w1
    237e:	48 00 90    	mov.w     [w8+8], w0
    2380:	63 03 07    	rcall     0x2a48 <_write>
    2382:	19 04 98    	mov.w     w9, [w8+2]
    2384:	23 00 37    	bra       0x23cc <.L7>

00002386 <.L5>:
    2386:	a8 00 90    	mov.w     [w8+4], w1
    2388:	e0 8f 50    	sub.w     w1, #0x0, [w15]
    238a:	08 00 3a    	bra       NZ, 0x239c <.L6>
    238c:	71 d4 20    	mov.w     #0xd47, w1
    238e:	21 04 98    	mov.w     w1, [w8+4]
    2390:	01 0c 78    	mov.w     w1, [w8]
    2392:	21 00 20    	mov.w     #0x2, w1
    2394:	51 04 98    	mov.w     w1, [w8+10]
    2396:	11 04 98    	mov.w     w1, [w8+2]
    2398:	00 30 a0    	bset.w    w0, #0x3
    239a:	30 04 98    	mov.w     w0, [w8+6]

0000239c <.L6>:
    239c:	18 01 90    	mov.w     [w8+2], w2
    239e:	a8 00 90    	mov.w     [w8+4], w1
    23a0:	48 00 90    	mov.w     [w8+8], w0
    23a2:	52 03 07    	rcall     0x2a48 <_write>
    23a4:	28 00 90    	mov.w     [w8+4], w0
    23a6:	80 80 eb    	setm.w    w1
    23a8:	11 04 98    	mov.w     w1, [w8+2]
    23aa:	af f8 97    	mov.b     [w15-6], w1
    23ac:	01 48 78    	mov.b     w1, [w0]
    23ae:	00 0c e8    	inc.w     w0, [w8]
    23b0:	2f f8 97    	mov.b     [w15-6], w0
    23b2:	ea 4f 50    	sub.b     w0, #0xa, [w15]
    23b4:	0b 00 3a    	bra       NZ, 0x23cc <.L7>
    23b6:	38 00 90    	mov.w     [w8+6], w0
    23b8:	00 10 b2    	and.w     #0x100, w0
    23ba:	08 00 32    	bra       Z, 0x23cc <.L7>
    23bc:	18 01 90    	mov.w     [w8+2], w2
    23be:	a8 00 90    	mov.w     [w8+4], w1
    23c0:	48 00 90    	mov.w     [w8+8], w0
    23c2:	42 03 07    	rcall     0x2a48 <_write>
    23c4:	00 00 eb    	clr.w     w0
    23c6:	10 04 98    	mov.w     w0, [w8+2]
    23c8:	a8 00 90    	mov.w     [w8+4], w1
    23ca:	01 0c 78    	mov.w     w1, [w8]

000023cc <.L7>:
    23cc:	af f8 97    	mov.b     [w15-6], w1
    23ce:	01 00 fb    	se        w1, w0

000023d0 <.L3>:
    23d0:	4f 04 be    	mov.d     [--w15], w8
    23d2:	00 80 fa    	ulnk      
    23d4:	00 00 06    	return    

000023d6 <_doread>:
    23d6:	00 c0 da    	.pword 0xdac000
    23d8:	00 00 06    	return    

000023da <_read>:
    23da:	0a 00 fa    	lnk       #0xa
    23dc:	e0 0f 50    	sub.w     w0, #0x0, [w15]
    23de:	26 00 3a    	bra       NZ, 0x242c <.L15>
    23e0:	60 6a 80    	mov.w     0xd4c, w0
    23e2:	e1 0f 50    	sub.w     w0, #0x1, [w15]
    23e4:	06 00 32    	bra       Z, 0x23f2 <.L13>
    23e6:	80 23 20    	mov.w     #0x238, w0
    23e8:	65 23 20    	mov.w     #0x236, w5
    23ea:	24 23 20    	mov.w     #0x232, w4
    23ec:	03 23 20    	mov.w     #0x230, w3
    23ee:	e0 0f 50    	sub.w     w0, #0x0, [w15]
    23f0:	04 00 3a    	bra       NZ, 0x23fa <.L5>

000023f2 <.L13>:
    23f2:	80 22 20    	mov.w     #0x228, w0
    23f4:	65 22 20    	mov.w     #0x226, w5
    23f6:	24 22 20    	mov.w     #0x222, w4
    23f8:	03 22 20    	mov.w     #0x220, w3

000023fa <.L5>:
    23fa:	06 00 28    	mov.w     #0x8000, w6
    23fc:	93 03 63    	and.w     w6, [w3], w7
    23fe:	02 00 3a    	bra       NZ, 0x2404 <.L6>
    2400:	07 08 78    	mov.w     w7, [w0]
    2402:	93 09 73    	ior.w     w6, [w3], [w3]

00002404 <.L6>:
    2404:	02 00 78    	mov.w     w2, w0
    2406:	0c 00 37    	bra       0x2420 <.L7>

00002408 <.L9>:
    2408:	83 01 e9    	dec.w     w3, w3

0000240a <.L11>:
    240a:	94 03 78    	mov.w     [w4], w7
    240c:	61 83 63    	and.w     w7, #0x1, w6
    240e:	02 00 3a    	bra       NZ, 0x2414 <.L8>
    2410:	e0 8f 51    	sub.w     w3, #0x0, [w15]
    2412:	fa ff 3a    	bra       NZ, 0x2408 <.L9>

00002414 <.L8>:
    2414:	14 03 78    	mov.w     [w4], w6
    2416:	e1 01 63    	and.w     w6, #0x1, w3
    2418:	07 00 32    	bra       Z, 0x2428 <.L10>
    241a:	95 01 78    	mov.w     [w5], w3
    241c:	83 58 78    	mov.b     w3, [w1++]
    241e:	00 00 e9    	dec.w     w0, w0

00002420 <.L7>:
    2420:	e0 0f 50    	sub.w     w0, #0x0, [w15]
    2422:	02 00 32    	bra       Z, 0x2428 <.L10>
    2424:	03 0a 20    	mov.w     #0xa0, w3
    2426:	f1 ff 37    	bra       0x240a <.L11>

00002428 <.L10>:
    2428:	00 00 51    	sub.w     w2, w0, w0
    242a:	08 00 37    	bra       0x243c <.L12>

0000242c <.L15>:
    242c:	23 00 20    	mov.w     #0x2, w3
    242e:	b3 bf 9f    	mov.w     w3, [w15-10]
    2430:	c0 bf 9f    	mov.w     w0, [w15-8]
    2432:	d1 bf 9f    	mov.w     w1, [w15-6]
    2434:	e2 bf 9f    	mov.w     w2, [w15-4]
    2436:	6a 80 57    	sub.w     w15, #0xa, w0
    2438:	ce ff 07    	rcall     0x23d6 <_doread>
    243a:	6f b8 97    	mov.w     [w15-4], w0

0000243c <.L12>:
    243c:	00 80 fa    	ulnk      
    243e:	00 00 06    	return    

00002440 <___mulp32eds3>:
    2440:	02 0a b9    	mul.su    w1, w2, w4
    2442:	00 1b b9    	mul.su    w3, w0, w6
    2444:	02 00 b8    	mul.uu    w0, w2, w0
    2446:	81 00 42    	add.w     w4, w1, w1
    2448:	81 00 43    	add.w     w6, w1, w1
    244a:	00 00 06    	return    

0000244c <___PplusBdi>:
    244c:	88 9f be    	mov.d     w8, [w15++]
    244e:	8a 9f be    	mov.d     w10, [w15++]
    2450:	30 04 be    	mov.d     [w0++], w8
    2452:	20 05 be    	mov.d     [w0--], w10
    2454:	04 04 44    	add.w     w8, w4, w8
    2456:	85 84 4c    	addc.w    w9, w5, w9
    2458:	06 05 4d    	addc.w    w10, w6, w10
    245a:	87 85 4d    	addc.w    w11, w7, w11
    245c:	08 98 be    	mov.d     w8, [w0++]
    245e:	0a 90 be    	mov.d     w10, [w0--]
    2460:	04 40 e1    	cp.w      w8, w4
    2462:	05 c8 e1    	cpb.w     w9, w5
    2464:	06 d0 e1    	cpb.w     w10, w6
    2466:	07 d8 e1    	cpb.w     w11, w7
    2468:	02 00 31    	bra       C, 0x246e <.L1>
    246a:	68 00 40    	add.w     w0, #0x8, w0
    246c:	10 08 e8    	inc.w     [w0], [w0]

0000246e <.L1>:
    246e:	4f 05 be    	mov.d     [--w15], w10
    2470:	4f 04 be    	mov.d     [--w15], w8
    2472:	00 00 06    	return    

00002474 <___PminusBdi>:
    2474:	88 9f be    	mov.d     w8, [w15++]
    2476:	8a 9f be    	mov.d     w10, [w15++]
    2478:	8c 1f 78    	mov.w     w12, [w15++]
    247a:	00 06 78    	mov.w     w0, w12
    247c:	3c 04 be    	mov.d     [w12++], w8
    247e:	2c 05 be    	mov.d     [w12--], w10
    2480:	04 00 54    	sub.w     w8, w4, w0
    2482:	85 80 5c    	subb.w    w9, w5, w1
    2484:	06 01 5d    	subb.w    w10, w6, w2
    2486:	87 81 5d    	subb.w    w11, w7, w3
    2488:	00 9e be    	mov.d     w0, [w12++]
    248a:	02 9e be    	mov.d     w2, [w12++]
    248c:	10 00 20    	mov.w     #0x1, w0
    248e:	04 40 e1    	cp.w      w8, w4
    2490:	05 c8 e1    	cpb.w     w9, w5
    2492:	06 d0 e1    	cpb.w     w10, w6
    2494:	07 d8 e1    	cpb.w     w11, w7
    2496:	01 00 39    	bra       NC, 0x249a <.L4>
    2498:	00 00 eb    	clr.w     w0

0000249a <.L4>:
    249a:	1c 0e 10    	subr.w    w0, [w12], [w12]
    249c:	4f 06 78    	mov.w     [--w15], w12
    249e:	4f 05 be    	mov.d     [--w15], w10
    24a0:	4f 04 be    	mov.d     [--w15], w8
    24a2:	00 00 06    	return    

000024a4 <___udivmoddi3>:
    24a4:	12 00 fa    	lnk       #0x12
    24a6:	88 9f be    	mov.d     w8, [w15++]
    24a8:	8a 9f be    	mov.d     w10, [w15++]
    24aa:	8c 9f be    	mov.d     w12, [w15++]
    24ac:	02 05 be    	mov.d     w2, w10
    24ae:	00 04 be    	mov.d     w0, w8
    24b0:	e4 b7 9f    	mov.w     w4, [w15-20]
    24b2:	f5 b7 9f    	mov.w     w5, [w15-18]
    24b4:	86 bf 9f    	mov.w     w6, [w15-16]
    24b6:	97 bf 9f    	mov.w     w7, [w15-14]
    24b8:	00 00 eb    	clr.w     w0
    24ba:	d0 b7 9f    	mov.w     w0, [w15-22]
    24bc:	c0 b7 9f    	mov.w     w0, [w15-24]
    24be:	b0 b7 9f    	mov.w     w0, [w15-26]
    24c0:	a0 b7 9f    	mov.w     w0, [w15-28]
    24c2:	90 b7 9f    	mov.w     w0, [w15-30]
    24c4:	00 06 78    	mov.w     w0, w12
    24c6:	fd 03 20    	mov.w     #0x3f, w13

000024c8 <.L9>:
    24c8:	df b1 97    	mov.w     [w15-22], w3
    24ca:	4f b0 97    	mov.w     [w15-24], w0
    24cc:	03 81 41    	add.w     w3, w3, w2
    24ce:	bf b0 97    	mov.w     [w15-26], w1
    24d0:	e0 8f 51    	sub.w     w3, #0x0, [w15]
    24d2:	04 00 3d    	bra       GE, 0x24dc <.L6>
    24d4:	29 00 07    	rcall     0x2528 <.LPA0>
    24d6:	7e 80 57    	sub.w     w15, #0x1e, w0
    24d8:	b9 ff 07    	rcall     0x244c <___PplusBdi>
    24da:	03 00 37    	bra       0x24e2 <.L7>

000024dc <.L6>:
    24dc:	25 00 07    	rcall     0x2528 <.LPA0>
    24de:	7e 80 57    	sub.w     w15, #0x1e, w0
    24e0:	c9 ff 07    	rcall     0x2474 <___PminusBdi>

000024e2 <.L7>:
    24e2:	df b0 97    	mov.w     [w15-22], w1
    24e4:	e0 8f 50    	sub.w     w1, #0x0, [w15]
    24e6:	07 00 35    	bra       LT, 0x24f6 <.L8>
    24e8:	14 00 20    	mov.w     #0x1, w4
    24ea:	05 00 20    	mov.w     #0x0, w5
    24ec:	60 33 b8    	mul.uu    w6, #0x0, w6
    24ee:	08 04 72    	ior.w     w4, w8, w8
    24f0:	89 84 72    	ior.w     w5, w9, w9
    24f2:	0a 05 73    	ior.w     w6, w10, w10
    24f4:	8b 85 73    	ior.w     w7, w11, w11

000024f6 <.L8>:
    24f6:	0c 06 e8    	inc.w     w12, w12
    24f8:	8d 0f 56    	sub.w     w12, w13, [w15]
    24fa:	e6 ff 34    	bra       LE, 0x24c8 <.L9>
    24fc:	e0 8f 50    	sub.w     w1, #0x0, [w15]
    24fe:	06 00 3d    	bra       GE, 0x250c <.L10>
    2500:	6f b2 97    	mov.w     [w15-20], w4
    2502:	ff b2 97    	mov.w     [w15-18], w5
    2504:	0f bb 97    	mov.w     [w15-16], w6
    2506:	9f bb 97    	mov.w     [w15-14], w7
    2508:	7e 80 57    	sub.w     w15, #0x1e, w0
    250a:	a0 ff 07    	rcall     0x244c <___PplusBdi>

0000250c <.L10>:
    250c:	5f a8 97    	mov.w     [w15-38], w0
    250e:	e0 0f 50    	sub.w     w0, #0x0, [w15]
    2510:	04 00 3a    	bra       NZ, 0x251a <.L11>
    2512:	1f b4 97    	mov.w     [w15-30], w8
    2514:	af b4 97    	mov.w     [w15-28], w9
    2516:	3f b5 97    	mov.w     [w15-26], w10
    2518:	cf b5 97    	mov.w     [w15-24], w11

0000251a <.L11>:
    251a:	08 00 be    	mov.d     w8, w0
    251c:	0a 01 be    	mov.d     w10, w2
    251e:	4f 06 be    	mov.d     [--w15], w12
    2520:	4f 05 be    	mov.d     [--w15], w10
    2522:	4f 04 be    	mov.d     [--w15], w8
    2524:	00 80 fa    	ulnk      
    2526:	00 00 06    	return    

00002528 <.LPA0>:
    2528:	cf 01 de    	lsr.w     w0, #0xf, w3
    252a:	02 81 71    	ior.w     w3, w2, w2
    252c:	b2 b7 9f    	mov.w     w2, [w15-26]
    252e:	4f 09 de    	lsr.w     w1, #0xf, w2
    2530:	00 00 40    	add.w     w0, w0, w0
    2532:	00 00 71    	ior.w     w2, w0, w0
    2534:	a0 b7 9f    	mov.w     w0, [w15-28]
    2536:	0f b0 97    	mov.w     [w15-32], w0
    2538:	4f 01 de    	lsr.w     w0, #0xf, w2
    253a:	81 80 40    	add.w     w1, w1, w1
    253c:	81 00 71    	ior.w     w2, w1, w1
    253e:	91 b7 9f    	mov.w     w1, [w15-30]
    2540:	7f aa 97    	mov.w     [w15-34], w4
    2542:	cf 20 de    	lsr.w     w4, #0xf, w1
    2544:	00 00 40    	add.w     w0, w0, w0
    2546:	00 80 70    	ior.w     w1, w0, w0
    2548:	80 b7 9f    	mov.w     w0, [w15-32]
    254a:	08 00 be    	mov.d     w8, w0
    254c:	0a 01 be    	mov.d     w10, w2
    254e:	4f 18 de    	lsr.w     w3, #0xf, w0
    2550:	04 02 42    	add.w     w4, w4, w4
    2552:	00 02 72    	ior.w     w4, w0, w4
    2554:	f4 af 9f    	mov.w     w4, [w15-34]
    2556:	08 04 44    	add.w     w8, w8, w8
    2558:	89 84 4c    	addc.w    w9, w9, w9
    255a:	0a 05 4d    	addc.w    w10, w10, w10
    255c:	8b 85 4d    	addc.w    w11, w11, w11
    255e:	4f b2 97    	mov.w     [w15-24], w4
    2560:	df b2 97    	mov.w     [w15-22], w5
    2562:	6f b3 97    	mov.w     [w15-20], w6
    2564:	ff b3 97    	mov.w     [w15-18], w7
    2566:	00 00 06    	return    

00002568 <___udivdi3>:
    2568:	88 1f 78    	mov.w     w8, [w15++]
    256a:	18 00 20    	mov.w     #0x1, w8
    256c:	88 1f 78    	mov.w     w8, [w15++]
    256e:	9a ff 07    	rcall     0x24a4 <___udivmoddi3>
    2570:	8f 87 e9    	dec2.w    w15, w15
    2572:	4f 04 78    	mov.w     [--w15], w8
    2574:	00 00 06    	return    

00002576 <___umoddi3>:
    2576:	80 1f eb    	clr.w     [w15++]
    2578:	95 ff 07    	rcall     0x24a4 <___udivmoddi3>
    257a:	8f 87 e9    	dec2.w    w15, w15
    257c:	00 00 06    	return    

0000257e <___divdi3>:
    257e:	88 9f be    	mov.d     w8, [w15++]
    2580:	8a 9f be    	mov.d     w10, [w15++]
    2582:	8c 1f 78    	mov.w     w12, [w15++]
    2584:	e0 0f 50    	sub.w     w0, #0x0, [w15]
    2586:	e0 8f 58    	subb.w    w1, #0x0, [w15]
    2588:	e0 0f 59    	subb.w    w2, #0x0, [w15]
    258a:	e0 8f 59    	subb.w    w3, #0x0, [w15]
    258c:	0f 00 3d    	bra       GE, 0x25ac <.L16>
    258e:	60 44 b8    	mul.uu    w8, #0x0, w8
    2590:	60 55 b8    	mul.uu    w10, #0x0, w10
    2592:	00 00 54    	sub.w     w8, w0, w0
    2594:	81 80 5c    	subb.w    w9, w1, w1
    2596:	02 01 5d    	subb.w    w10, w2, w2
    2598:	83 81 5d    	subb.w    w11, w3, w3
    259a:	1c 00 20    	mov.w     #0x1, w12
    259c:	08 20 e1    	cp.w      w4, w8
    259e:	09 a8 e1    	cpb.w     w5, w9
    25a0:	0a b0 e1    	cpb.w     w6, w10
    25a2:	0b b8 e1    	cpb.w     w7, w11
    25a4:	0d 00 3d    	bra       GE, 0x25c0 <.L17>
    25a6:	19 00 07    	rcall     0x25da <.LPA1>
    25a8:	00 06 eb    	clr.w     w12
    25aa:	0a 00 37    	bra       0x25c0 <.L17>

000025ac <.L16>:
    25ac:	00 06 eb    	clr.w     w12
    25ae:	e0 0f 52    	sub.w     w4, #0x0, [w15]
    25b0:	e0 8f 5a    	subb.w    w5, #0x0, [w15]
    25b2:	e0 0f 5b    	subb.w    w6, #0x0, [w15]
    25b4:	e0 8f 5b    	subb.w    w7, #0x0, [w15]
    25b6:	04 00 3d    	bra       GE, 0x25c0 <.L17>
    25b8:	60 44 b8    	mul.uu    w8, #0x0, w8
    25ba:	60 55 b8    	mul.uu    w10, #0x0, w10
    25bc:	0e 00 07    	rcall     0x25da <.LPA1>
    25be:	1c 00 20    	mov.w     #0x1, w12

000025c0 <.L17>:
    25c0:	d3 ff 07    	rcall     0x2568 <___udivdi3>
    25c2:	e0 0f 56    	sub.w     w12, #0x0, [w15]
    25c4:	06 00 32    	bra       Z, 0x25d2 <.L18>
    25c6:	60 22 b8    	mul.uu    w4, #0x0, w4
    25c8:	60 33 b8    	mul.uu    w6, #0x0, w6
    25ca:	00 00 52    	sub.w     w4, w0, w0
    25cc:	81 80 5a    	subb.w    w5, w1, w1
    25ce:	02 01 5b    	subb.w    w6, w2, w2
    25d0:	83 81 5b    	subb.w    w7, w3, w3

000025d2 <.L18>:
    25d2:	4f 06 78    	mov.w     [--w15], w12
    25d4:	4f 05 be    	mov.d     [--w15], w10
    25d6:	4f 04 be    	mov.d     [--w15], w8
    25d8:	00 00 06    	return    

000025da <.LPA1>:
    25da:	04 02 54    	sub.w     w8, w4, w4
    25dc:	85 82 5c    	subb.w    w9, w5, w5
    25de:	06 03 5d    	subb.w    w10, w6, w6
    25e0:	87 83 5d    	subb.w    w11, w7, w7
    25e2:	00 00 06    	return    

000025e4 <___moddi3>:
    25e4:	88 9f be    	mov.d     w8, [w15++]
    25e6:	8a 9f be    	mov.d     w10, [w15++]
    25e8:	8c 1f 78    	mov.w     w12, [w15++]
    25ea:	e0 0f 50    	sub.w     w0, #0x0, [w15]
    25ec:	e0 8f 58    	subb.w    w1, #0x0, [w15]
    25ee:	e0 0f 59    	subb.w    w2, #0x0, [w15]
    25f0:	e0 8f 59    	subb.w    w3, #0x0, [w15]
    25f2:	0d 00 3d    	bra       GE, 0x260e <.L22>
    25f4:	60 44 b8    	mul.uu    w8, #0x0, w8
    25f6:	60 55 b8    	mul.uu    w10, #0x0, w10
    25f8:	00 00 54    	sub.w     w8, w0, w0
    25fa:	81 80 5c    	subb.w    w9, w1, w1
    25fc:	02 01 5d    	subb.w    w10, w2, w2
    25fe:	83 81 5d    	subb.w    w11, w3, w3
    2600:	1c 00 20    	mov.w     #0x1, w12
    2602:	08 20 e1    	cp.w      w4, w8
    2604:	09 a8 e1    	cpb.w     w5, w9
    2606:	0a b0 e1    	cpb.w     w6, w10
    2608:	0b b8 e1    	cpb.w     w7, w11
    260a:	0d 00 3d    	bra       GE, 0x2626 <.L23>
    260c:	08 00 37    	bra       0x261e <.L27>

0000260e <.L22>:
    260e:	00 06 eb    	clr.w     w12
    2610:	e0 0f 52    	sub.w     w4, #0x0, [w15]
    2612:	e0 8f 5a    	subb.w    w5, #0x0, [w15]
    2614:	e0 0f 5b    	subb.w    w6, #0x0, [w15]
    2616:	e0 8f 5b    	subb.w    w7, #0x0, [w15]
    2618:	06 00 3d    	bra       GE, 0x2626 <.L23>
    261a:	60 44 b8    	mul.uu    w8, #0x0, w8
    261c:	60 55 b8    	mul.uu    w10, #0x0, w10

0000261e <.L27>:
    261e:	04 02 54    	sub.w     w8, w4, w4
    2620:	85 82 5c    	subb.w    w9, w5, w5
    2622:	06 03 5d    	subb.w    w10, w6, w6
    2624:	87 83 5d    	subb.w    w11, w7, w7

00002626 <.L23>:
    2626:	a7 ff 07    	rcall     0x2576 <___umoddi3>
    2628:	e0 0f 56    	sub.w     w12, #0x0, [w15]
    262a:	06 00 32    	bra       Z, 0x2638 <.L24>
    262c:	60 22 b8    	mul.uu    w4, #0x0, w4
    262e:	60 33 b8    	mul.uu    w6, #0x0, w6
    2630:	00 00 52    	sub.w     w4, w0, w0
    2632:	81 80 5a    	subb.w    w5, w1, w1
    2634:	02 01 5b    	subb.w    w6, w2, w2
    2636:	83 81 5b    	subb.w    w7, w3, w3

00002638 <.L24>:
    2638:	4f 06 78    	mov.w     [--w15], w12
    263a:	4f 05 be    	mov.d     [--w15], w10
    263c:	4f 04 be    	mov.d     [--w15], w8
    263e:	00 00 06    	return    

00002640 <___muldi3>:
    2640:	88 9f be    	mov.d     w8, [w15++]
    2642:	8a 9f be    	mov.d     w10, [w15++]
    2644:	8c 1f 78    	mov.w     w12, [w15++]
    2646:	00 06 eb    	clr.w     w12
    2648:	e0 0f 50    	sub.w     w0, #0x0, [w15]
    264a:	e0 8f 58    	subb.w    w1, #0x0, [w15]
    264c:	e0 0f 59    	subb.w    w2, #0x0, [w15]
    264e:	e0 8f 59    	subb.w    w3, #0x0, [w15]
    2650:	07 00 3d    	bra       GE, 0x2660 <.L2>
    2652:	60 44 b8    	mul.uu    w8, #0x0, w8
    2654:	60 55 b8    	mul.uu    w10, #0x0, w10
    2656:	00 00 54    	sub.w     w8, w0, w0
    2658:	81 80 5c    	subb.w    w9, w1, w1
    265a:	02 01 5d    	subb.w    w10, w2, w2
    265c:	83 81 5d    	subb.w    w11, w3, w3
    265e:	1c 00 20    	mov.w     #0x1, w12

00002660 <.L2>:
    2660:	e0 0f 52    	sub.w     w4, #0x0, [w15]
    2662:	e0 8f 5a    	subb.w    w5, #0x0, [w15]
    2664:	e0 0f 5b    	subb.w    w6, #0x0, [w15]
    2666:	e0 8f 5b    	subb.w    w7, #0x0, [w15]
    2668:	07 00 3d    	bra       GE, 0x2678 <.L3>
    266a:	60 44 b8    	mul.uu    w8, #0x0, w8
    266c:	60 55 b8    	mul.uu    w10, #0x0, w10
    266e:	04 02 54    	sub.w     w8, w4, w4
    2670:	85 82 5c    	subb.w    w9, w5, w5
    2672:	06 03 5d    	subb.w    w10, w6, w6
    2674:	87 83 5d    	subb.w    w11, w7, w7
    2676:	0c 00 a2    	btg.w     w12, #0x0

00002678 <.L3>:
    2678:	0c 00 07    	rcall     0x2692 <___umuldi3>
    267a:	e0 0f 56    	sub.w     w12, #0x0, [w15]
    267c:	06 00 32    	bra       Z, 0x268a <.L4>
    267e:	60 22 b8    	mul.uu    w4, #0x0, w4
    2680:	60 33 b8    	mul.uu    w6, #0x0, w6
    2682:	00 00 52    	sub.w     w4, w0, w0
    2684:	81 80 5a    	subb.w    w5, w1, w1
    2686:	02 01 5b    	subb.w    w6, w2, w2
    2688:	83 81 5b    	subb.w    w7, w3, w3

0000268a <.L4>:
    268a:	4f 06 78    	mov.w     [--w15], w12
    268c:	4f 05 be    	mov.d     [--w15], w10
    268e:	4f 04 be    	mov.d     [--w15], w8
    2690:	00 00 06    	return    

00002692 <___umuldi3>:
    2692:	88 9f be    	mov.d     w8, [w15++]
    2694:	8a 9f be    	mov.d     w10, [w15++]
    2696:	8c 9f be    	mov.d     w12, [w15++]
    2698:	04 04 b8    	mul.uu    w0, w4, w8
    269a:	05 06 b8    	mul.uu    w0, w5, w12
    269c:	89 04 46    	add.w     w12, w9, w9
    269e:	60 85 4e    	addc.w    w13, #0x0, w10
    26a0:	06 06 b8    	mul.uu    w0, w6, w12
    26a2:	0a 05 46    	add.w     w12, w10, w10
    26a4:	e0 85 4e    	addc.w    w13, #0x0, w11
    26a6:	07 06 b8    	mul.uu    w0, w7, w12
    26a8:	8b 05 46    	add.w     w12, w11, w11
    26aa:	04 0e b8    	mul.uu    w1, w4, w12
    26ac:	89 04 46    	add.w     w12, w9, w9
    26ae:	0a 85 4e    	addc.w    w13, w10, w10
    26b0:	e0 85 4d    	addc.w    w11, #0x0, w11
    26b2:	05 0e b8    	mul.uu    w1, w5, w12
    26b4:	0a 05 46    	add.w     w12, w10, w10
    26b6:	8b 85 4e    	addc.w    w13, w11, w11
    26b8:	06 0e b8    	mul.uu    w1, w6, w12
    26ba:	8b 05 46    	add.w     w12, w11, w11
    26bc:	04 16 b8    	mul.uu    w2, w4, w12
    26be:	0a 05 46    	add.w     w12, w10, w10
    26c0:	8b 85 4e    	addc.w    w13, w11, w11
    26c2:	05 16 b8    	mul.uu    w2, w5, w12
    26c4:	8b 05 46    	add.w     w12, w11, w11
    26c6:	04 1e b8    	mul.uu    w3, w4, w12
    26c8:	8b 05 46    	add.w     w12, w11, w11
    26ca:	08 00 be    	mov.d     w8, w0
    26cc:	0a 01 be    	mov.d     w10, w2
    26ce:	4f 06 be    	mov.d     [--w15], w12
    26d0:	4f 05 be    	mov.d     [--w15], w10
    26d2:	4f 04 be    	mov.d     [--w15], w8
    26d4:	00 00 06    	return    
Disassembly of section __CONFIG3:

000157fa <__CONFIG3>:
   157fa:	03 1c 00    	nop       
Disassembly of section __CONFIG2:

000157fc <__CONFIG2>:
   157fc:	0f 89 00    	nop       
Disassembly of section __CONFIG1:

000157fe <__CONFIG1>:
   157fe:	7f 3e 00    	nop       
Disassembly of section .application_ivt:

00001000 <__DEFAULT_VECTOR-0x10c>:
    1000:	10 11 04    	goto      0x1110 <__resetPRI>
    1002:	00 00 00 
    1004:	c0 46 04    	goto      0x46c0 <__DefaultInterrupt>
    1006:	00 00 00 
    1008:	c0 46 04    	goto      0x46c0 <__DefaultInterrupt>
    100a:	00 00 00 
    100c:	c0 46 04    	goto      0x46c0 <__DefaultInterrupt>
    100e:	00 00 00 
    1010:	c0 46 04    	goto      0x46c0 <__DefaultInterrupt>
    1012:	00 00 00 
    1014:	c0 46 04    	goto      0x46c0 <__DefaultInterrupt>
    1016:	00 00 00 
    1018:	c0 46 04    	goto      0x46c0 <__DefaultInterrupt>
    101a:	00 00 00 
    101c:	c0 46 04    	goto      0x46c0 <__DefaultInterrupt>
    101e:	00 00 00 
    1020:	c0 46 04    	goto      0x46c0 <__DefaultInterrupt>
    1022:	00 00 00 
    1024:	0c 35 04    	goto      0x350c <__T1Interrupt>
    1026:	00 00 00 
    1028:	c0 46 04    	goto      0x46c0 <__DefaultInterrupt>
    102a:	00 00 00 
    102c:	c0 46 04    	goto      0x46c0 <__DefaultInterrupt>
    102e:	00 00 00 
    1030:	32 35 04    	goto      0x3532 <__T2Interrupt>
    1032:	00 00 00 
    1034:	58 35 04    	goto      0x3558 <__T3Interrupt>
    1036:	00 00 00 
    1038:	c0 46 04    	goto      0x46c0 <__DefaultInterrupt>
    103a:	00 00 00 
    103c:	c0 46 04    	goto      0x46c0 <__DefaultInterrupt>
    103e:	00 00 00 
    1040:	3e 29 04    	goto      0x293e <__U1RXInterrupt>
    1042:	00 00 00 
    1044:	18 29 04    	goto      0x2918 <__U1TXInterrupt>
    1046:	00 00 00 
    1048:	c0 46 04    	goto      0x46c0 <__DefaultInterrupt>
    104a:	00 00 00 
    104c:	c0 46 04    	goto      0x46c0 <__DefaultInterrupt>
    104e:	00 00 00 
    1050:	c0 46 04    	goto      0x46c0 <__DefaultInterrupt>
    1052:	00 00 00 
    1054:	c0 46 04    	goto      0x46c0 <__DefaultInterrupt>
    1056:	00 00 00 
    1058:	c0 46 04    	goto      0x46c0 <__DefaultInterrupt>
    105a:	00 00 00 
    105c:	c0 46 04    	goto      0x46c0 <__DefaultInterrupt>
    105e:	00 00 00 
    1060:	c0 46 04    	goto      0x46c0 <__DefaultInterrupt>
    1062:	00 00 00 
    1064:	c0 46 04    	goto      0x46c0 <__DefaultInterrupt>
    1066:	00 00 00 
    1068:	c0 46 04    	goto      0x46c0 <__DefaultInterrupt>
    106a:	00 00 00 
    106c:	c0 46 04    	goto      0x46c0 <__DefaultInterrupt>
    106e:	00 00 00 
    1070:	7e 35 04    	goto      0x357e <__T4Interrupt>
    1072:	00 00 00 
    1074:	a4 35 04    	goto      0x35a4 <__T5Interrupt>
    1076:	00 00 00 
    1078:	c0 46 04    	goto      0x46c0 <__DefaultInterrupt>
    107a:	00 00 00 
    107c:	8a 29 04    	goto      0x298a <__U2RXInterrupt>
    107e:	00 00 00 
    1080:	64 29 04    	goto      0x2964 <__U2TXInterrupt>
    1082:	00 00 00 
    1084:	c0 46 04    	goto      0x46c0 <__DefaultInterrupt>
    1086:	00 00 00 
    1088:	c0 46 04    	goto      0x46c0 <__DefaultInterrupt>
    108a:	00 00 00 
    108c:	c0 46 04    	goto      0x46c0 <__DefaultInterrupt>
    108e:	00 00 00 
    1090:	c0 46 04    	goto      0x46c0 <__DefaultInterrupt>
    1092:	00 00 00 
    1094:	c0 46 04    	goto      0x46c0 <__DefaultInterrupt>
    1096:	00 00 00 
    1098:	c0 46 04    	goto      0x46c0 <__DefaultInterrupt>
    109a:	00 00 00 
    109c:	c0 46 04    	goto      0x46c0 <__DefaultInterrupt>
    109e:	00 00 00 
    10a0:	c0 46 04    	goto      0x46c0 <__DefaultInterrupt>
    10a2:	00 00 00 
    10a4:	c0 46 04    	goto      0x46c0 <__DefaultInterrupt>
    10a6:	00 00 00 
    10a8:	c0 46 04    	goto      0x46c0 <__DefaultInterrupt>
    10aa:	00 00 00 
    10ac:	c0 46 04    	goto      0x46c0 <__DefaultInterrupt>
    10ae:	00 00 00 
    10b0:	c0 46 04    	goto      0x46c0 <__DefaultInterrupt>
    10b2:	00 00 00 
    10b4:	c0 46 04    	goto      0x46c0 <__DefaultInterrupt>
    10b6:	00 00 00 
    10b8:	c0 46 04    	goto      0x46c0 <__DefaultInterrupt>
    10ba:	00 00 00 
    10bc:	c0 46 04    	goto      0x46c0 <__DefaultInterrupt>
    10be:	00 00 00 
    10c0:	c0 46 04    	goto      0x46c0 <__DefaultInterrupt>
    10c2:	00 00 00 
    10c4:	c0 46 04    	goto      0x46c0 <__DefaultInterrupt>
    10c6:	00 00 00 
    10c8:	c0 46 04    	goto      0x46c0 <__DefaultInterrupt>
    10ca:	00 00 00 
    10cc:	c0 46 04    	goto      0x46c0 <__DefaultInterrupt>
    10ce:	00 00 00 
    10d0:	c0 46 04    	goto      0x46c0 <__DefaultInterrupt>
    10d2:	00 00 00 
    10d4:	c0 46 04    	goto      0x46c0 <__DefaultInterrupt>
    10d6:	00 00 00 
    10d8:	c0 46 04    	goto      0x46c0 <__DefaultInterrupt>
    10da:	00 00 00 
    10dc:	d6 29 04    	goto      0x29d6 <__U3RXInterrupt>
    10de:	00 00 00 
    10e0:	b0 29 04    	goto      0x29b0 <__U3TXInterrupt>
    10e2:	00 00 00 
    10e4:	c0 46 04    	goto      0x46c0 <__DefaultInterrupt>
    10e6:	00 00 00 
    10e8:	c0 46 04    	goto      0x46c0 <__DefaultInterrupt>
    10ea:	00 00 00 
    10ec:	c0 46 04    	goto      0x46c0 <__DefaultInterrupt>
    10ee:	00 00 00 
    10f0:	c0 46 04    	goto      0x46c0 <__DefaultInterrupt>
    10f2:	00 00 00 
    10f4:	22 2a 04    	goto      0x2a22 <__U4RXInterrupt>
    10f6:	00 00 00 
    10f8:	fc 29 04    	goto      0x29fc <__U4TXInterrupt>
    10fa:	00 00 00 
    10fc:	c0 46 04    	goto      0x46c0 <__DefaultInterrupt>
    10fe:	00 00 00 
    1100:	c0 46 04    	goto      0x46c0 <__DefaultInterrupt>
    1102:	00 00 00 
    1104:	c0 46 04    	goto      0x46c0 <__DefaultInterrupt>
    1106:	00 00 00 
    1108:	c0 46 04    	goto      0x46c0 <__DefaultInterrupt>
    110a:	00 00 00 

0000110c <__DEFAULT_VECTOR>:
    110c:	c0 46 04    	goto      0x46c0 <__DefaultInterrupt>
    110e:	00 00 00 
Disassembly of section .ivt:

00000004 <.ivt>:
   4:	04 10 00    	nop       
   6:	08 10 00    	nop       
   8:	0c 10 00    	nop       
   a:	10 10 00    	nop       
   c:	14 10 00    	nop       
   e:	0c 11 00    	nop       
  10:	0c 11 00    	nop       
  12:	0c 11 00    	nop       
  14:	18 10 00    	nop       
  16:	1c 10 00    	nop       
  18:	20 10 00    	nop       
  1a:	24 10 00    	nop       
  1c:	0c 11 00    	nop       
  1e:	28 10 00    	nop       
  20:	2c 10 00    	nop       
  22:	30 10 00    	nop       
  24:	34 10 00    	nop       
  26:	38 10 00    	nop       
  28:	3c 10 00    	nop       
  2a:	40 10 00    	nop       
  2c:	44 10 00    	nop       
  2e:	48 10 00    	nop       
  30:	0c 11 00    	nop       
  32:	0c 11 00    	nop       
  34:	4c 10 00    	nop       
  36:	50 10 00    	nop       
  38:	54 10 00    	nop       
  3a:	58 10 00    	nop       
  3c:	5c 10 00    	nop       
  3e:	0c 11 00    	nop       
  40:	60 10 00    	nop       
  42:	64 10 00    	nop       
  44:	0c 11 00    	nop       
  46:	68 10 00    	nop       
  48:	6c 10 00    	nop       
  4a:	70 10 00    	nop       
  4c:	74 10 00    	nop       
  4e:	78 10 00    	nop       
  50:	7c 10 00    	nop       
  52:	80 10 00    	nop       
  54:	84 10 00    	nop       
  56:	88 10 00    	nop       
  58:	0c 11 00    	nop       
  5a:	0c 11 00    	nop       
  5c:	0c 11 00    	nop       
  5e:	8c 10 00    	nop       
  60:	90 10 00    	nop       
  62:	94 10 00    	nop       
  64:	98 10 00    	nop       
  66:	9c 10 00    	nop       
  68:	a0 10 00    	nop       
  6a:	a4 10 00    	nop       
  6c:	a8 10 00    	nop       
  6e:	ac 10 00    	nop       
  70:	0c 11 00    	nop       
  72:	0c 11 00    	nop       
  74:	0c 11 00    	nop       
  76:	b0 10 00    	nop       
  78:	b4 10 00    	nop       
  7a:	0c 11 00    	nop       
  7c:	0c 11 00    	nop       
  7e:	b8 10 00    	nop       
  80:	bc 10 00    	nop       
  82:	0c 11 00    	nop       
  84:	0c 11 00    	nop       
  86:	0c 11 00    	nop       
  88:	0c 11 00    	nop       
  8a:	0c 11 00    	nop       
  8c:	0c 11 00    	nop       
  8e:	0c 11 00    	nop       
  90:	c0 10 00    	nop       
  92:	0c 11 00    	nop       
  94:	0c 11 00    	nop       
  96:	c4 10 00    	nop       
  98:	c8 10 00    	nop       
  9a:	cc 10 00    	nop       
  9c:	0c 11 00    	nop       
  9e:	0c 11 00    	nop       
  a0:	0c 11 00    	nop       
  a2:	0c 11 00    	nop       
  a4:	d0 10 00    	nop       
  a6:	0c 11 00    	nop       
  a8:	0c 11 00    	nop       
  aa:	0c 11 00    	nop       
  ac:	0c 11 00    	nop       
  ae:	d4 10 00    	nop       
  b0:	0c 11 00    	nop       
  b2:	0c 11 00    	nop       
  b4:	0c 11 00    	nop       
  b6:	d8 10 00    	nop       
  b8:	dc 10 00    	nop       
  ba:	e0 10 00    	nop       
  bc:	e4 10 00    	nop       
  be:	e8 10 00    	nop       
  c0:	ec 10 00    	nop       
  c2:	f0 10 00    	nop       
  c4:	f4 10 00    	nop       
  c6:	f8 10 00    	nop       
  c8:	fc 10 00    	nop       
  ca:	00 11 00    	nop       
  cc:	04 11 00    	nop       
  ce:	08 11 00    	nop       
  d0:	0c 11 00    	nop       
  d2:	0c 11 00    	nop       
  d4:	0c 11 00    	nop       
  d6:	0c 11 00    	nop       
  d8:	0c 11 00    	nop       
  da:	0c 11 00    	nop       
  dc:	0c 11 00    	nop       
  de:	0c 11 00    	nop       
  e0:	0c 11 00    	nop       
  e2:	0c 11 00    	nop       
  e4:	0c 11 00    	nop       
  e6:	0c 11 00    	nop       
  e8:	0c 11 00    	nop       
  ea:	0c 11 00    	nop       
  ec:	0c 11 00    	nop       
  ee:	0c 11 00    	nop       
  f0:	0c 11 00    	nop       
  f2:	0c 11 00    	nop       
  f4:	0c 11 00    	nop       
  f6:	0c 11 00    	nop       
  f8:	0c 11 00    	nop       
  fa:	0c 11 00    	nop       
  fc:	0c 11 00    	nop       
  fe:	0c 11 00    	nop       
Disassembly of section .const:

0000a6d6 <.LC0>:
    a6d6:	48 65       	.word 0x6548
    a6d8:	6c 6c       	.word 0x6c6c
    a6da:	6f 20       	.word 0x206f
    a6dc:	57 6f       	.word 0x6f57
    a6de:	72 6c       	.word 0x6c72
    a6e0:	64 21       	.word 0x2164
    a6e2:	00 54       	.word 0x5400

0000a6e3 <.LC1>:
    a6e3:	00 00       	.word 0
    a6e5:	00 00       	.word 0
    a6e7:	00 00       	.word 0
    a6e9:	00 00       	.word 0
    a6eb:	00 00       	.word 0
    a6ed:	00 00       	.word 0
    a6ef:	00 00       	.word 0
    a6f1:	00 00       	.word 0
    a6f3:	00 00       	.word 0
    a6f5:	00 00       	.word 0
    a6f7:	00 00       	.word 0
    a6f9:	00 00       	.word 0
    a6fb:	00 00       	.word 0
    a6fd:	00 00       	.word 0
    a6ff:	00 00       	.word 0

0000a701 <.LC2>:
    a701:	00 00       	.word 0
    a703:	00 00       	.word 0
    a705:	00 00       	.word 0
    a707:	00 00       	.word 0
    a709:	00 00       	.word 0
    a70b:	00 00       	.word 0
    a70d:	00 00       	.word 0
	...

0000a710 <.LC3>:
    a710:	25 64       	.word 0x6425
    a712:	20 25       	.word 0x2520
    a714:	64 00       	.word 0x64

0000a716 <.LC4>:
    a716:	76 61       	.word 0x6176
    a718:	6c 31       	.word 0x316c
    a71a:	20 69       	.word 0x6920
    a71c:	73 20       	.word 0x2073
    a71e:	25 64       	.word 0x6425
    a720:	0a 00       	.word 0xa

0000a722 <.LC5>:
    a722:	76 61       	.word 0x6176
    a724:	6c 32       	.word 0x326c
    a726:	20 69       	.word 0x6920
    a728:	73 20       	.word 0x2073
    a72a:	25 64       	.word 0x6425
    a72c:	0a 00       	.word 0xa
Disassembly of section .text:

0000272e <___putc_nobuffer>:
    272e:	04 00 fa    	lnk       #0x4
    2730:	00 0f 78    	mov.w     w0, [w14]
    2732:	21 47 98    	mov.b     w1, [w14+2]

00002734 <.LSM1>:
    2734:	00 00 00    	nop       

00002736 <.L2>:
    2736:	1e 00 78    	mov.w     [w14], w0
    2738:	10 00 90    	mov.w     [w0+2], w0
    273a:	90 00 78    	mov.w     [w0], w1
    273c:	00 20 20    	mov.w     #0x200, w0
    273e:	00 80 60    	and.w     w1, w0, w0
    2740:	e0 0f 50    	sub.w     w0, #0x0, [w15]
    2742:	f9 ff 3a    	bra       NZ, 0x2736 <.L2>

00002744 <.LSM2>:
    2744:	1e 00 78    	mov.w     [w14], w0
    2746:	a0 00 90    	mov.w     [w0+4], w1
    2748:	2e 40 90    	mov.b     [w14+2], w0
    274a:	00 80 fb    	ze        w0, w0
    274c:	80 08 78    	mov.w     w0, [w1]

0000274e <.LSM3>:
    274e:	00 80 fa    	ulnk      
    2750:	00 00 06    	return    

00002752 <___getc_nobuffer>:
    2752:	02 00 fa    	lnk       #0x2
    2754:	00 0f 78    	mov.w     w0, [w14]

00002756 <.LSM5>:
    2756:	00 00 00    	nop       

00002758 <.L4>:
    2758:	1e 00 78    	mov.w     [w14], w0
    275a:	10 00 90    	mov.w     [w0+2], w0
    275c:	10 00 78    	mov.w     [w0], w0
    275e:	61 00 60    	and.w     w0, #0x1, w0
    2760:	e0 0f 50    	sub.w     w0, #0x0, [w15]
    2762:	fa ff 32    	bra       Z, 0x2758 <.L4>

00002764 <.LSM6>:
    2764:	1e 00 78    	mov.w     [w14], w0
    2766:	30 00 90    	mov.w     [w0+6], w0
    2768:	10 00 78    	mov.w     [w0], w0
    276a:	00 40 78    	mov.b     w0, w0

0000276c <.LSM7>:
    276c:	00 80 fa    	ulnk      
    276e:	00 00 06    	return    

00002770 <___putc_buffer>:
    2770:	04 00 fa    	lnk       #0x4
    2772:	00 0f 78    	mov.w     w0, [w14]
    2774:	21 47 98    	mov.b     w1, [w14+2]

00002776 <.LSM9>:
    2776:	00 00 00    	nop       

00002778 <.L6>:
    2778:	1e 00 78    	mov.w     [w14], w0
    277a:	d0 10 90    	mov.w     [w0+42], w1
    277c:	1e 00 78    	mov.w     [w14], w0
    277e:	20 10 90    	mov.w     [w0+36], w0
    2780:	80 8f 50    	sub.w     w1, w0, [w15]
    2782:	fa ff 32    	bra       Z, 0x2778 <.L6>

00002784 <.LSM10>:
    2784:	1e 00 78    	mov.w     [w14], w0
    2786:	90 10 90    	mov.w     [w0+34], w1
    2788:	1e 00 78    	mov.w     [w14], w0
    278a:	40 10 90    	mov.w     [w0+40], w0
    278c:	00 80 40    	add.w     w1, w0, w0
    278e:	ae 40 90    	mov.b     [w14+2], w1
    2790:	01 48 78    	mov.b     w1, [w0]

00002792 <.LSM11>:
    2792:	1e 00 78    	mov.w     [w14], w0
    2794:	40 10 90    	mov.w     [w0+40], w0
    2796:	80 00 e8    	inc.w     w0, w1
    2798:	1e 00 78    	mov.w     [w14], w0
    279a:	20 10 90    	mov.w     [w0+36], w0
    279c:	00 01 78    	mov.w     w0, w2
    279e:	11 00 09    	repeat    #0x11
    27a0:	82 80 d8    	div.uw    w1, w2
    27a2:	80 00 fd    	exch      w0, w1
    27a4:	80 00 78    	mov.w     w0, w1
    27a6:	1e 00 78    	mov.w     [w14], w0
    27a8:	41 10 98    	mov.w     w1, [w0+40]

000027aa <.LSM12>:
    27aa:	1e 00 78    	mov.w     [w14], w0
    27ac:	50 10 90    	mov.w     [w0+42], w0
    27ae:	80 00 e8    	inc.w     w0, w1
    27b0:	1e 00 78    	mov.w     [w14], w0
    27b2:	51 10 98    	mov.w     w1, [w0+42]

000027b4 <.LSM13>:
    27b4:	1e 00 78    	mov.w     [w14], w0
    27b6:	d0 10 90    	mov.w     [w0+42], w1
    27b8:	1e 00 78    	mov.w     [w14], w0
    27ba:	30 18 90    	mov.w     [w0+54], w0
    27bc:	80 8f 50    	sub.w     w1, w0, [w15]
    27be:	08 00 39    	bra       NC, 0x27d0 <.L5>

000027c0 <.LSM14>:
    27c0:	1e 00 78    	mov.w     [w14], w0
    27c2:	10 00 90    	mov.w     [w0+2], w0
    27c4:	9e 00 78    	mov.w     [w14], w1
    27c6:	91 00 90    	mov.w     [w1+2], w1
    27c8:	11 01 78    	mov.w     [w1], w2
    27ca:	01 40 20    	mov.w     #0x400, w1
    27cc:	81 00 71    	ior.w     w2, w1, w1
    27ce:	01 08 78    	mov.w     w1, [w0]

000027d0 <.L5>:
    27d0:	00 80 fa    	ulnk      
    27d2:	00 00 06    	return    

000027d4 <___serviceTxInterrupt>:
    27d4:	04 00 fa    	lnk       #0x4
    27d6:	10 07 98    	mov.w     w0, [w14+2]

000027d8 <.LSM17>:
    27d8:	1e 00 90    	mov.w     [w14+2], w0
    27da:	d0 00 90    	mov.w     [w0+10], w1
    27dc:	1e 00 90    	mov.w     [w14+2], w0
    27de:	50 00 90    	mov.w     [w0+10], w0
    27e0:	10 01 78    	mov.w     [w0], w2
    27e2:	1e 00 90    	mov.w     [w14+2], w0
    27e4:	60 48 90    	mov.b     [w0+14], w0
    27e6:	00 80 fb    	ze        w0, w0
    27e8:	13 00 20    	mov.w     #0x1, w3
    27ea:	00 18 dd    	sl.w      w3, w0, w0
    27ec:	00 80 ea    	com.w     w0, w0
    27ee:	00 00 61    	and.w     w2, w0, w0
    27f0:	80 08 78    	mov.w     w0, [w1]

000027f2 <.LSM18>:
    27f2:	1e 00 90    	mov.w     [w14+2], w0
    27f4:	50 10 90    	mov.w     [w0+42], w0
    27f6:	e0 0f 50    	sub.w     w0, #0x0, [w15]
    27f8:	26 00 3a    	bra       NZ, 0x2846 <.L13>

000027fa <.LSM19>:
    27fa:	1e 00 90    	mov.w     [w14+2], w0
    27fc:	10 00 90    	mov.w     [w0+2], w0
    27fe:	9e 00 90    	mov.w     [w14+2], w1
    2800:	91 00 90    	mov.w     [w1+2], w1
    2802:	11 01 78    	mov.w     [w1], w2
    2804:	f1 bf 2f    	mov.w     #0xfbff, w1
    2806:	81 00 61    	and.w     w2, w1, w1
    2808:	01 08 78    	mov.w     w1, [w0]

0000280a <.LSM20>:
    280a:	1e 00 37    	bra       0x2848 <.L10>

0000280c <.L12>:
    280c:	1e 00 90    	mov.w     [w14+2], w0
    280e:	90 10 90    	mov.w     [w0+34], w1
    2810:	1e 00 90    	mov.w     [w14+2], w0
    2812:	30 10 90    	mov.w     [w0+38], w0
    2814:	00 80 40    	add.w     w1, w0, w0
    2816:	10 4f 78    	mov.b     [w0], [w14]

00002818 <.LSM22>:
    2818:	1e 00 90    	mov.w     [w14+2], w0
    281a:	30 10 90    	mov.w     [w0+38], w0
    281c:	80 00 e8    	inc.w     w0, w1
    281e:	1e 00 90    	mov.w     [w14+2], w0
    2820:	20 10 90    	mov.w     [w0+36], w0
    2822:	00 01 78    	mov.w     w0, w2
    2824:	11 00 09    	repeat    #0x11
    2826:	82 80 d8    	div.uw    w1, w2
    2828:	80 00 fd    	exch      w0, w1
    282a:	80 00 78    	mov.w     w0, w1
    282c:	1e 00 90    	mov.w     [w14+2], w0
    282e:	31 10 98    	mov.w     w1, [w0+38]

00002830 <.LSM23>:
    2830:	1e 00 90    	mov.w     [w14+2], w0
    2832:	50 10 90    	mov.w     [w0+42], w0
    2834:	80 00 e9    	dec.w     w0, w1
    2836:	1e 00 90    	mov.w     [w14+2], w0
    2838:	51 10 98    	mov.w     w1, [w0+42]

0000283a <.LSM24>:
    283a:	1e 00 90    	mov.w     [w14+2], w0
    283c:	20 00 90    	mov.w     [w0+4], w0
    283e:	1e 41 78    	mov.b     [w14], w2
    2840:	82 80 fb    	ze        w2, w1
    2842:	01 08 78    	mov.w     w1, [w0]
    2844:	01 00 37    	bra       0x2848 <.L10>

00002846 <.L13>:
    2846:	00 00 00    	nop       

00002848 <.L10>:
    2848:	1e 00 90    	mov.w     [w14+2], w0
    284a:	10 00 90    	mov.w     [w0+2], w0
    284c:	90 00 78    	mov.w     [w0], w1
    284e:	00 20 20    	mov.w     #0x200, w0
    2850:	00 80 60    	and.w     w1, w0, w0
    2852:	e0 0f 50    	sub.w     w0, #0x0, [w15]
    2854:	04 00 3a    	bra       NZ, 0x285e <.L8>
    2856:	1e 00 90    	mov.w     [w14+2], w0
    2858:	50 10 90    	mov.w     [w0+42], w0
    285a:	e0 0f 50    	sub.w     w0, #0x0, [w15]
    285c:	d7 ff 3a    	bra       NZ, 0x280c <.L12>

0000285e <.L8>:
    285e:	00 80 fa    	ulnk      
    2860:	00 00 06    	return    

00002862 <___getc_buffer>:
    2862:	04 00 fa    	lnk       #0x4
    2864:	10 07 98    	mov.w     w0, [w14+2]

00002866 <.LSM28>:
    2866:	00 00 00    	nop       

00002868 <.L15>:
    2868:	1e 00 90    	mov.w     [w14+2], w0
    286a:	20 18 90    	mov.w     [w0+52], w0
    286c:	e0 0f 50    	sub.w     w0, #0x0, [w15]
    286e:	fc ff 32    	bra       Z, 0x2868 <.L15>

00002870 <.LSM29>:
    2870:	1e 00 90    	mov.w     [w14+2], w0
    2872:	e0 10 90    	mov.w     [w0+44], w1
    2874:	1e 00 90    	mov.w     [w14+2], w0
    2876:	00 18 90    	mov.w     [w0+48], w0
    2878:	00 80 40    	add.w     w1, w0, w0
    287a:	10 4f 78    	mov.b     [w0], [w14]

0000287c <.LSM30>:
    287c:	1e 00 90    	mov.w     [w14+2], w0
    287e:	00 18 90    	mov.w     [w0+48], w0
    2880:	80 00 e8    	inc.w     w0, w1
    2882:	1e 00 90    	mov.w     [w14+2], w0
    2884:	70 10 90    	mov.w     [w0+46], w0
    2886:	00 01 78    	mov.w     w0, w2
    2888:	11 00 09    	repeat    #0x11
    288a:	82 80 d8    	div.uw    w1, w2
    288c:	80 00 fd    	exch      w0, w1
    288e:	80 00 78    	mov.w     w0, w1
    2890:	1e 00 90    	mov.w     [w14+2], w0
    2892:	01 18 98    	mov.w     w1, [w0+48]

00002894 <.LSM31>:
    2894:	1e 00 90    	mov.w     [w14+2], w0
    2896:	20 18 90    	mov.w     [w0+52], w0
    2898:	80 00 e9    	dec.w     w0, w1
    289a:	1e 00 90    	mov.w     [w14+2], w0
    289c:	21 18 98    	mov.w     w1, [w0+52]

0000289e <.LSM32>:
    289e:	1e 40 78    	mov.b     [w14], w0

000028a0 <.LSM33>:
    28a0:	00 80 fa    	ulnk      
    28a2:	00 00 06    	return    

000028a4 <___serviceRxInterrupt>:
    28a4:	02 00 fa    	lnk       #0x2
    28a6:	00 0f 78    	mov.w     w0, [w14]

000028a8 <.LSM35>:
    28a8:	1e 00 78    	mov.w     [w14], w0
    28aa:	d0 00 90    	mov.w     [w0+10], w1
    28ac:	1e 00 78    	mov.w     [w14], w0
    28ae:	50 00 90    	mov.w     [w0+10], w0
    28b0:	10 01 78    	mov.w     [w0], w2
    28b2:	1e 00 78    	mov.w     [w14], w0
    28b4:	70 48 90    	mov.b     [w0+15], w0
    28b6:	00 80 fb    	ze        w0, w0
    28b8:	13 00 20    	mov.w     #0x1, w3
    28ba:	00 18 dd    	sl.w      w3, w0, w0
    28bc:	00 80 ea    	com.w     w0, w0
    28be:	00 00 61    	and.w     w2, w0, w0
    28c0:	80 08 78    	mov.w     w0, [w1]

000028c2 <.LSM36>:
    28c2:	1b 00 37    	bra       0x28fa <.L17>

000028c4 <.L19>:
    28c4:	1e 00 78    	mov.w     [w14], w0
    28c6:	e0 10 90    	mov.w     [w0+44], w1
    28c8:	1e 00 78    	mov.w     [w14], w0
    28ca:	10 18 90    	mov.w     [w0+50], w0
    28cc:	80 80 40    	add.w     w1, w0, w1
    28ce:	1e 00 78    	mov.w     [w14], w0
    28d0:	30 00 90    	mov.w     [w0+6], w0
    28d2:	10 00 78    	mov.w     [w0], w0
    28d4:	00 40 78    	mov.b     w0, w0
    28d6:	80 48 78    	mov.b     w0, [w1]

000028d8 <.LSM38>:
    28d8:	1e 00 78    	mov.w     [w14], w0
    28da:	10 18 90    	mov.w     [w0+50], w0
    28dc:	80 00 e8    	inc.w     w0, w1
    28de:	1e 00 78    	mov.w     [w14], w0
    28e0:	70 10 90    	mov.w     [w0+46], w0
    28e2:	00 01 78    	mov.w     w0, w2
    28e4:	11 00 09    	repeat    #0x11
    28e6:	82 80 d8    	div.uw    w1, w2
    28e8:	80 00 fd    	exch      w0, w1
    28ea:	80 00 78    	mov.w     w0, w1
    28ec:	1e 00 78    	mov.w     [w14], w0
    28ee:	11 18 98    	mov.w     w1, [w0+50]

000028f0 <.LSM39>:
    28f0:	1e 00 78    	mov.w     [w14], w0
    28f2:	20 18 90    	mov.w     [w0+52], w0
    28f4:	80 00 e8    	inc.w     w0, w1
    28f6:	1e 00 78    	mov.w     [w14], w0
    28f8:	21 18 98    	mov.w     w1, [w0+52]

000028fa <.L17>:
    28fa:	1e 00 78    	mov.w     [w14], w0
    28fc:	10 00 90    	mov.w     [w0+2], w0
    28fe:	10 00 78    	mov.w     [w0], w0
    2900:	61 00 60    	and.w     w0, #0x1, w0
    2902:	00 40 78    	mov.b     w0, w0
    2904:	e0 4f 50    	sub.b     w0, #0x0, [w15]
    2906:	06 00 32    	bra       Z, 0x2914 <.L16>

00002908 <.LSM41>:
    2908:	1e 00 78    	mov.w     [w14], w0
    290a:	a0 18 90    	mov.w     [w0+52], w1
    290c:	1e 00 78    	mov.w     [w14], w0
    290e:	70 10 90    	mov.w     [w0+46], w0

00002910 <.LSM42>:
    2910:	80 8f 50    	sub.w     w1, w0, [w15]
    2912:	d8 ff 3a    	bra       NZ, 0x28c4 <.L19>

00002914 <.L16>:
    2914:	00 80 fa    	ulnk      
    2916:	00 00 06    	return    

00002918 <__U1TXInterrupt>:
    2918:	36 00 f8    	push      0x36
    291a:	80 9f be    	mov.d     w0, [w15++]
    291c:	82 9f be    	mov.d     w2, [w15++]
    291e:	84 9f be    	mov.d     w4, [w15++]
    2920:	86 9f be    	mov.d     w6, [w15++]
    2922:	32 00 f8    	push      0x32
    2924:	00 20 20    	mov.w     #0x200, w0
    2926:	90 01 88    	mov.w     w0, 0x32
    2928:	00 00 fa    	lnk       #0x0

0000292a <.LSM45>:
    292a:	80 9b 20    	mov.w     #0x9b8, w0
    292c:	53 ff 07    	rcall     0x27d4 <___serviceTxInterrupt>

0000292e <.LSM46>:
    292e:	00 80 fa    	ulnk      
    2930:	32 00 f9    	pop       0x32
    2932:	4f 03 be    	mov.d     [--w15], w6
    2934:	4f 02 be    	mov.d     [--w15], w4
    2936:	4f 01 be    	mov.d     [--w15], w2
    2938:	4f 00 be    	mov.d     [--w15], w0
    293a:	36 00 f9    	pop       0x36
    293c:	00 40 06    	retfie    

0000293e <__U1RXInterrupt>:
    293e:	36 00 f8    	push      0x36
    2940:	80 9f be    	mov.d     w0, [w15++]
    2942:	82 9f be    	mov.d     w2, [w15++]
    2944:	84 9f be    	mov.d     w4, [w15++]
    2946:	86 9f be    	mov.d     w6, [w15++]
    2948:	32 00 f8    	push      0x32
    294a:	00 20 20    	mov.w     #0x200, w0
    294c:	90 01 88    	mov.w     w0, 0x32
    294e:	00 00 fa    	lnk       #0x0

00002950 <.LSM48>:
    2950:	80 9b 20    	mov.w     #0x9b8, w0
    2952:	a8 ff 07    	rcall     0x28a4 <___serviceRxInterrupt>

00002954 <.LSM49>:
    2954:	00 80 fa    	ulnk      
    2956:	32 00 f9    	pop       0x32
    2958:	4f 03 be    	mov.d     [--w15], w6
    295a:	4f 02 be    	mov.d     [--w15], w4
    295c:	4f 01 be    	mov.d     [--w15], w2
    295e:	4f 00 be    	mov.d     [--w15], w0
    2960:	36 00 f9    	pop       0x36
    2962:	00 40 06    	retfie    

00002964 <__U2TXInterrupt>:
    2964:	36 00 f8    	push      0x36
    2966:	80 9f be    	mov.d     w0, [w15++]
    2968:	82 9f be    	mov.d     w2, [w15++]
    296a:	84 9f be    	mov.d     w4, [w15++]
    296c:	86 9f be    	mov.d     w6, [w15++]
    296e:	32 00 f8    	push      0x32
    2970:	00 20 20    	mov.w     #0x200, w0
    2972:	90 01 88    	mov.w     w0, 0x32
    2974:	00 00 fa    	lnk       #0x0

00002976 <.LSM51>:
    2976:	40 9f 20    	mov.w     #0x9f4, w0
    2978:	2d ff 07    	rcall     0x27d4 <___serviceTxInterrupt>

0000297a <.LSM52>:
    297a:	00 80 fa    	ulnk      
    297c:	32 00 f9    	pop       0x32
    297e:	4f 03 be    	mov.d     [--w15], w6
    2980:	4f 02 be    	mov.d     [--w15], w4
    2982:	4f 01 be    	mov.d     [--w15], w2
    2984:	4f 00 be    	mov.d     [--w15], w0
    2986:	36 00 f9    	pop       0x36
    2988:	00 40 06    	retfie    

0000298a <__U2RXInterrupt>:
    298a:	36 00 f8    	push      0x36
    298c:	80 9f be    	mov.d     w0, [w15++]
    298e:	82 9f be    	mov.d     w2, [w15++]
    2990:	84 9f be    	mov.d     w4, [w15++]
    2992:	86 9f be    	mov.d     w6, [w15++]
    2994:	32 00 f8    	push      0x32
    2996:	00 20 20    	mov.w     #0x200, w0
    2998:	90 01 88    	mov.w     w0, 0x32
    299a:	00 00 fa    	lnk       #0x0

0000299c <.LSM54>:
    299c:	40 9f 20    	mov.w     #0x9f4, w0
    299e:	82 ff 07    	rcall     0x28a4 <___serviceRxInterrupt>

000029a0 <.LSM55>:
    29a0:	00 80 fa    	ulnk      
    29a2:	32 00 f9    	pop       0x32
    29a4:	4f 03 be    	mov.d     [--w15], w6
    29a6:	4f 02 be    	mov.d     [--w15], w4
    29a8:	4f 01 be    	mov.d     [--w15], w2
    29aa:	4f 00 be    	mov.d     [--w15], w0
    29ac:	36 00 f9    	pop       0x36
    29ae:	00 40 06    	retfie    

000029b0 <__U3TXInterrupt>:
    29b0:	36 00 f8    	push      0x36
    29b2:	80 9f be    	mov.d     w0, [w15++]
    29b4:	82 9f be    	mov.d     w2, [w15++]
    29b6:	84 9f be    	mov.d     w4, [w15++]
    29b8:	86 9f be    	mov.d     w6, [w15++]
    29ba:	32 00 f8    	push      0x32
    29bc:	00 20 20    	mov.w     #0x200, w0
    29be:	90 01 88    	mov.w     w0, 0x32
    29c0:	00 00 fa    	lnk       #0x0

000029c2 <.LSM57>:
    29c2:	00 a3 20    	mov.w     #0xa30, w0
    29c4:	07 ff 07    	rcall     0x27d4 <___serviceTxInterrupt>

000029c6 <.LSM58>:
    29c6:	00 80 fa    	ulnk      
    29c8:	32 00 f9    	pop       0x32
    29ca:	4f 03 be    	mov.d     [--w15], w6
    29cc:	4f 02 be    	mov.d     [--w15], w4
    29ce:	4f 01 be    	mov.d     [--w15], w2
    29d0:	4f 00 be    	mov.d     [--w15], w0
    29d2:	36 00 f9    	pop       0x36
    29d4:	00 40 06    	retfie    

000029d6 <__U3RXInterrupt>:
    29d6:	36 00 f8    	push      0x36
    29d8:	80 9f be    	mov.d     w0, [w15++]
    29da:	82 9f be    	mov.d     w2, [w15++]
    29dc:	84 9f be    	mov.d     w4, [w15++]
    29de:	86 9f be    	mov.d     w6, [w15++]
    29e0:	32 00 f8    	push      0x32
    29e2:	00 20 20    	mov.w     #0x200, w0
    29e4:	90 01 88    	mov.w     w0, 0x32
    29e6:	00 00 fa    	lnk       #0x0

000029e8 <.LSM60>:
    29e8:	00 a3 20    	mov.w     #0xa30, w0
    29ea:	5c ff 07    	rcall     0x28a4 <___serviceRxInterrupt>

000029ec <.LSM61>:
    29ec:	00 80 fa    	ulnk      
    29ee:	32 00 f9    	pop       0x32
    29f0:	4f 03 be    	mov.d     [--w15], w6
    29f2:	4f 02 be    	mov.d     [--w15], w4
    29f4:	4f 01 be    	mov.d     [--w15], w2
    29f6:	4f 00 be    	mov.d     [--w15], w0
    29f8:	36 00 f9    	pop       0x36
    29fa:	00 40 06    	retfie    

000029fc <__U4TXInterrupt>:
    29fc:	36 00 f8    	push      0x36
    29fe:	80 9f be    	mov.d     w0, [w15++]
    2a00:	82 9f be    	mov.d     w2, [w15++]
    2a02:	84 9f be    	mov.d     w4, [w15++]
    2a04:	86 9f be    	mov.d     w6, [w15++]
    2a06:	32 00 f8    	push      0x32
    2a08:	00 20 20    	mov.w     #0x200, w0
    2a0a:	90 01 88    	mov.w     w0, 0x32
    2a0c:	00 00 fa    	lnk       #0x0

00002a0e <.LSM63>:
    2a0e:	c0 a6 20    	mov.w     #0xa6c, w0
    2a10:	e1 fe 07    	rcall     0x27d4 <___serviceTxInterrupt>

00002a12 <.LSM64>:
    2a12:	00 80 fa    	ulnk      
    2a14:	32 00 f9    	pop       0x32
    2a16:	4f 03 be    	mov.d     [--w15], w6
    2a18:	4f 02 be    	mov.d     [--w15], w4
    2a1a:	4f 01 be    	mov.d     [--w15], w2
    2a1c:	4f 00 be    	mov.d     [--w15], w0
    2a1e:	36 00 f9    	pop       0x36
    2a20:	00 40 06    	retfie    

00002a22 <__U4RXInterrupt>:
    2a22:	36 00 f8    	push      0x36
    2a24:	80 9f be    	mov.d     w0, [w15++]
    2a26:	82 9f be    	mov.d     w2, [w15++]
    2a28:	84 9f be    	mov.d     w4, [w15++]
    2a2a:	86 9f be    	mov.d     w6, [w15++]
    2a2c:	32 00 f8    	push      0x32
    2a2e:	00 20 20    	mov.w     #0x200, w0
    2a30:	90 01 88    	mov.w     w0, 0x32
    2a32:	00 00 fa    	lnk       #0x0

00002a34 <.LSM66>:
    2a34:	c0 a6 20    	mov.w     #0xa6c, w0
    2a36:	36 ff 07    	rcall     0x28a4 <___serviceRxInterrupt>

00002a38 <.LSM67>:
    2a38:	00 80 fa    	ulnk      
    2a3a:	32 00 f9    	pop       0x32
    2a3c:	4f 03 be    	mov.d     [--w15], w6
    2a3e:	4f 02 be    	mov.d     [--w15], w4
    2a40:	4f 01 be    	mov.d     [--w15], w2
    2a42:	4f 00 be    	mov.d     [--w15], w0
    2a44:	36 00 f9    	pop       0x36
    2a46:	00 40 06    	retfie    

00002a48 <_write>:
    2a48:	08 00 fa    	lnk       #0x8
    2a4a:	10 07 98    	mov.w     w0, [w14+2]
    2a4c:	21 07 98    	mov.w     w1, [w14+4]
    2a4e:	32 07 98    	mov.w     w2, [w14+6]

00002a50 <.LSM69>:
    2a50:	1e 00 90    	mov.w     [w14+2], w0
    2a52:	e0 0f 50    	sub.w     w0, #0x0, [w15]
    2a54:	29 00 35    	bra       LT, 0x2aa8 <.L37>
    2a56:	e1 0f 50    	sub.w     w0, #0x1, [w15]
    2a58:	03 00 34    	bra       LE, 0x2a60 <.L30>
    2a5a:	e2 0f 50    	sub.w     w0, #0x2, [w15]
    2a5c:	13 00 32    	bra       Z, 0x2a84 <.L31>

00002a5e <.LSM70>:
    2a5e:	25 00 37    	bra       0x2aaa <.L34>

00002a60 <.L30>:
    2a60:	00 00 eb    	clr.w     w0
    2a62:	00 0f 78    	mov.w     w0, [w14]
    2a64:	0a 00 37    	bra       0x2a7a <.L32>

00002a66 <.L33>:
    2a66:	2e 00 90    	mov.w     [w14+4], w0
    2a68:	10 40 78    	mov.b     [w0], w0
    2a6a:	ae 00 90    	mov.w     [w14+4], w1
    2a6c:	81 00 e8    	inc.w     w1, w1
    2a6e:	21 07 98    	mov.w     w1, [w14+4]
    2a70:	42 55 80    	mov.w     0xaa8, w2
    2a72:	80 40 78    	mov.b     w0, w1
    2a74:	02 00 78    	mov.w     w2, w0
    2a76:	4d 04 07    	rcall     0x3312 <_uart_putc>

00002a78 <.LSM73>:
    2a78:	1e 0f e8    	inc.w     [w14], [w14]

00002a7a <.L32>:
    2a7a:	9e 00 78    	mov.w     [w14], w1
    2a7c:	3e 00 90    	mov.w     [w14+6], w0
    2a7e:	80 8f 50    	sub.w     w1, w0, [w15]
    2a80:	f2 ff 39    	bra       NC, 0x2a66 <.L33>

00002a82 <.LSM74>:
    2a82:	13 00 37    	bra       0x2aaa <.L34>

00002a84 <.L31>:
    2a84:	00 00 eb    	clr.w     w0
    2a86:	00 0f 78    	mov.w     w0, [w14]
    2a88:	0a 00 37    	bra       0x2a9e <.L35>

00002a8a <.L36>:
    2a8a:	2e 00 90    	mov.w     [w14+4], w0
    2a8c:	10 40 78    	mov.b     [w0], w0
    2a8e:	ae 00 90    	mov.w     [w14+4], w1
    2a90:	81 00 e8    	inc.w     w1, w1
    2a92:	21 07 98    	mov.w     w1, [w14+4]
    2a94:	52 55 80    	mov.w     0xaaa, w2
    2a96:	80 40 78    	mov.b     w0, w1
    2a98:	02 00 78    	mov.w     w2, w0
    2a9a:	3b 04 07    	rcall     0x3312 <_uart_putc>

00002a9c <.LSM77>:
    2a9c:	1e 0f e8    	inc.w     [w14], [w14]

00002a9e <.L35>:
    2a9e:	9e 00 78    	mov.w     [w14], w1
    2aa0:	3e 00 90    	mov.w     [w14+6], w0
    2aa2:	80 8f 50    	sub.w     w1, w0, [w15]
    2aa4:	f2 ff 39    	bra       NC, 0x2a8a <.L36>

00002aa6 <.LSM78>:
    2aa6:	01 00 37    	bra       0x2aaa <.L34>

00002aa8 <.L37>:
    2aa8:	00 00 00    	nop       

00002aaa <.L34>:
    2aaa:	3e 00 90    	mov.w     [w14+6], w0

00002aac <.LSM81>:
    2aac:	00 80 fa    	ulnk      
    2aae:	00 00 06    	return    

00002ab0 <_init_uart>:
    2ab0:	00 00 fa    	lnk       #0x0

00002ab2 <.LSM83>:
    2ab2:	b4 07 07    	rcall     0x3a1c <_init_pin>

00002ab4 <.LSM84>:
    2ab4:	40 6d 20    	mov.w     #0x6d4, w0
    2ab6:	80 1f 78    	mov.w     w0, [w15++]
    2ab8:	57 01 20    	mov.w     #0x15, w7
    2aba:	86 c0 b3    	mov.b     #0x8, w6
    2abc:	80 82 eb    	setm.w    w5
    2abe:	64 c0 b3    	mov.b     #0x6, w4
    2ac0:	80 01 eb    	clr.w     w3
    2ac2:	02 2f 20    	mov.w     #0x2f0, w2
    2ac4:	21 2f 20    	mov.w     #0x2f2, w1
    2ac6:	c0 aa 20    	mov.w     #0xaac, w0
    2ac8:	bf 08 07    	rcall     0x3c48 <_pin_init>
    2aca:	8f 87 e9    	dec2.w    w15, w15

00002acc <.LSM85>:
    2acc:	a0 6d 20    	mov.w     #0x6da, w0
    2ace:	80 1f 78    	mov.w     w0, [w15++]
    2ad0:	a7 01 20    	mov.w     #0x1a, w7
    2ad2:	00 43 eb    	clr.b     w6
    2ad4:	80 82 eb    	setm.w    w5
    2ad6:	74 c0 b3    	mov.b     #0x7, w4
    2ad8:	80 01 eb    	clr.w     w3
    2ada:	02 2f 20    	mov.w     #0x2f0, w2
    2adc:	21 2f 20    	mov.w     #0x2f2, w1
    2ade:	20 ac 20    	mov.w     #0xac2, w0
    2ae0:	b3 08 07    	rcall     0x3c48 <_pin_init>
    2ae2:	8f 87 e9    	dec2.w    w15, w15

00002ae4 <.LSM86>:
    2ae4:	40 00 20    	mov.w     #0x4, w0
    2ae6:	80 1f 78    	mov.w     w0, [w15++]
    2ae8:	30 00 20    	mov.w     #0x3, w0
    2aea:	80 1f 78    	mov.w     w0, [w15++]
    2aec:	80 c0 b3    	mov.b     #0x8, w0
    2aee:	80 1f 78    	mov.w     w0, [w15++]
    2af0:	00 40 eb    	clr.b     w0
    2af2:	80 1f 78    	mov.w     w0, [w15++]
    2af4:	40 6a 20    	mov.w     #0x6a4, w0
    2af6:	80 1f 78    	mov.w     w0, [w15++]
    2af8:	40 6a 20    	mov.w     #0x6a4, w0
    2afa:	80 1f 78    	mov.w     w0, [w15++]
    2afc:	b0 c0 b3    	mov.b     #0xb, w0
    2afe:	80 1f 78    	mov.w     w0, [w15++]
    2b00:	c0 c0 b3    	mov.b     #0xc, w0
    2b02:	80 1f 78    	mov.w     w0, [w15++]
    2b04:	47 09 20    	mov.w     #0x94, w7
    2b06:	46 08 20    	mov.w     #0x84, w6
    2b08:	85 22 20    	mov.w     #0x228, w5
    2b0a:	64 22 20    	mov.w     #0x226, w4
    2b0c:	43 22 20    	mov.w     #0x224, w3
    2b0e:	22 22 20    	mov.w     #0x222, w2
    2b10:	01 22 20    	mov.w     #0x220, w1
    2b12:	80 9b 20    	mov.w     #0x9b8, w0
    2b14:	6b 00 07    	rcall     0x2bec <_uart_init>
    2b16:	f0 87 57    	sub.w     w15, #0x10, w15

00002b18 <.LSM87>:
    2b18:	60 00 20    	mov.w     #0x6, w0
    2b1a:	80 1f 78    	mov.w     w0, [w15++]
    2b1c:	50 00 20    	mov.w     #0x5, w0
    2b1e:	80 1f 78    	mov.w     w0, [w15++]
    2b20:	80 c0 b3    	mov.b     #0x8, w0
    2b22:	80 1f 78    	mov.w     w0, [w15++]
    2b24:	00 40 eb    	clr.b     w0
    2b26:	80 1f 78    	mov.w     w0, [w15++]
    2b28:	60 6a 20    	mov.w     #0x6a6, w0
    2b2a:	80 1f 78    	mov.w     w0, [w15++]
    2b2c:	60 6a 20    	mov.w     #0x6a6, w0
    2b2e:	80 1f 78    	mov.w     w0, [w15++]
    2b30:	e0 c0 b3    	mov.b     #0xe, w0
    2b32:	80 1f 78    	mov.w     w0, [w15++]
    2b34:	f0 c0 b3    	mov.b     #0xf, w0
    2b36:	80 1f 78    	mov.w     w0, [w15++]
    2b38:	67 09 20    	mov.w     #0x96, w7
    2b3a:	66 08 20    	mov.w     #0x86, w6
    2b3c:	85 23 20    	mov.w     #0x238, w5
    2b3e:	64 23 20    	mov.w     #0x236, w4
    2b40:	43 23 20    	mov.w     #0x234, w3
    2b42:	22 23 20    	mov.w     #0x232, w2
    2b44:	01 23 20    	mov.w     #0x230, w1
    2b46:	40 9f 20    	mov.w     #0x9f4, w0
    2b48:	51 00 07    	rcall     0x2bec <_uart_init>
    2b4a:	f0 87 57    	sub.w     w15, #0x10, w15

00002b4c <.LSM88>:
    2b4c:	d0 01 20    	mov.w     #0x1d, w0
    2b4e:	80 1f 78    	mov.w     w0, [w15++]
    2b50:	c0 01 20    	mov.w     #0x1c, w0
    2b52:	80 1f 78    	mov.w     w0, [w15++]
    2b54:	80 c0 b3    	mov.b     #0x8, w0
    2b56:	80 1f 78    	mov.w     w0, [w15++]
    2b58:	80 c0 b3    	mov.b     #0x8, w0
    2b5a:	80 1f 78    	mov.w     w0, [w15++]
    2b5c:	a0 6a 20    	mov.w     #0x6aa, w0
    2b5e:	80 1f 78    	mov.w     w0, [w15++]
    2b60:	20 6a 20    	mov.w     #0x6a2, w0
    2b62:	80 1f 78    	mov.w     w0, [w15++]
    2b64:	20 c0 b3    	mov.b     #0x2, w0
    2b66:	80 1f 78    	mov.w     w0, [w15++]
    2b68:	30 c0 b3    	mov.b     #0x3, w0
    2b6a:	80 1f 78    	mov.w     w0, [w15++]
    2b6c:	e7 09 20    	mov.w     #0x9e, w7
    2b6e:	e6 08 20    	mov.w     #0x8e, w6
    2b70:	85 25 20    	mov.w     #0x258, w5
    2b72:	64 25 20    	mov.w     #0x256, w4
    2b74:	43 25 20    	mov.w     #0x254, w3
    2b76:	22 25 20    	mov.w     #0x252, w2
    2b78:	01 25 20    	mov.w     #0x250, w1
    2b7a:	00 a3 20    	mov.w     #0xa30, w0
    2b7c:	37 00 07    	rcall     0x2bec <_uart_init>
    2b7e:	f0 87 57    	sub.w     w15, #0x10, w15

00002b80 <.LSM89>:
    2b80:	f0 01 20    	mov.w     #0x1f, w0
    2b82:	80 1f 78    	mov.w     w0, [w15++]
    2b84:	e0 01 20    	mov.w     #0x1e, w0
    2b86:	80 1f 78    	mov.w     w0, [w15++]
    2b88:	80 c0 b3    	mov.b     #0x8, w0
    2b8a:	80 1f 78    	mov.w     w0, [w15++]
    2b8c:	00 40 eb    	clr.b     w0
    2b8e:	80 1f 78    	mov.w     w0, [w15++]
    2b90:	60 6b 20    	mov.w     #0x6b6, w0
    2b92:	80 1f 78    	mov.w     w0, [w15++]
    2b94:	60 6b 20    	mov.w     #0x6b6, w0
    2b96:	80 1f 78    	mov.w     w0, [w15++]
    2b98:	80 c0 b3    	mov.b     #0x8, w0
    2b9a:	80 1f 78    	mov.w     w0, [w15++]
    2b9c:	90 c0 b3    	mov.b     #0x9, w0
    2b9e:	80 1f 78    	mov.w     w0, [w15++]
    2ba0:	e7 09 20    	mov.w     #0x9e, w7
    2ba2:	e6 08 20    	mov.w     #0x8e, w6
    2ba4:	85 2b 20    	mov.w     #0x2b8, w5
    2ba6:	64 2b 20    	mov.w     #0x2b6, w4
    2ba8:	43 2b 20    	mov.w     #0x2b4, w3
    2baa:	22 2b 20    	mov.w     #0x2b2, w2
    2bac:	01 2b 20    	mov.w     #0x2b0, w1
    2bae:	c0 a6 20    	mov.w     #0xa6c, w0
    2bb0:	1d 00 07    	rcall     0x2bec <_uart_init>
    2bb2:	f0 87 57    	sub.w     w15, #0x10, w15

00002bb4 <.LSM90>:
    2bb4:	00 00 eb    	clr.w     w0
    2bb6:	80 1f 78    	mov.w     w0, [w15++]
    2bb8:	00 00 eb    	clr.w     w0
    2bba:	80 1f 78    	mov.w     w0, [w15++]
    2bbc:	00 00 eb    	clr.w     w0
    2bbe:	80 1f 78    	mov.w     w0, [w15++]
    2bc0:	00 00 eb    	clr.w     w0
    2bc2:	80 1f 78    	mov.w     w0, [w15++]
    2bc4:	00 00 eb    	clr.w     w0
    2bc6:	80 1f 78    	mov.w     w0, [w15++]
    2bc8:	10 00 20    	mov.w     #0x1, w0
    2bca:	80 1f 78    	mov.w     w0, [w15++]
    2bcc:	e5 c4 b3    	mov.b     #0x4e, w5
    2bce:	06 00 20    	mov.w     #0x0, w6
    2bd0:	67 69 24    	mov.w     #0x4696, w7
    2bd2:	00 02 eb    	clr.w     w4
    2bd4:	80 01 eb    	clr.w     w3
    2bd6:	22 ac 20    	mov.w     #0xac2, w2
    2bd8:	c1 aa 20    	mov.w     #0xaac, w1
    2bda:	80 9b 20    	mov.w     #0x9b8, w0
    2bdc:	72 00 07    	rcall     0x2cc2 <_uart_open>
    2bde:	ec 87 57    	sub.w     w15, #0xc, w15

00002be0 <.LSM91>:
    2be0:	80 9b 20    	mov.w     #0x9b8, w0
    2be2:	40 55 88    	mov.w     w0, 0xaa8

00002be4 <.LSM92>:
    2be4:	80 9b 20    	mov.w     #0x9b8, w0
    2be6:	50 55 88    	mov.w     w0, 0xaaa

00002be8 <.LSM93>:
    2be8:	00 80 fa    	ulnk      
    2bea:	00 00 06    	return    

00002bec <_uart_init>:
    2bec:	10 00 fa    	lnk       #0x10
    2bee:	00 0f 78    	mov.w     w0, [w14]
    2bf0:	11 07 98    	mov.w     w1, [w14+2]
    2bf2:	22 07 98    	mov.w     w2, [w14+4]
    2bf4:	33 07 98    	mov.w     w3, [w14+6]
    2bf6:	44 07 98    	mov.w     w4, [w14+8]
    2bf8:	55 07 98    	mov.w     w5, [w14+10]
    2bfa:	66 07 98    	mov.w     w6, [w14+12]
    2bfc:	77 07 98    	mov.w     w7, [w14+14]

00002bfe <.LSM95>:
    2bfe:	1e 00 78    	mov.w     [w14], w0
    2c00:	9e 00 90    	mov.w     [w14+2], w1
    2c02:	01 08 78    	mov.w     w1, [w0]

00002c04 <.LSM96>:
    2c04:	1e 00 78    	mov.w     [w14], w0
    2c06:	ae 00 90    	mov.w     [w14+4], w1
    2c08:	11 00 98    	mov.w     w1, [w0+2]

00002c0a <.LSM97>:
    2c0a:	1e 00 78    	mov.w     [w14], w0
    2c0c:	be 00 90    	mov.w     [w14+6], w1
    2c0e:	21 00 98    	mov.w     w1, [w0+4]

00002c10 <.LSM98>:
    2c10:	1e 00 78    	mov.w     [w14], w0
    2c12:	ce 00 90    	mov.w     [w14+8], w1
    2c14:	31 00 98    	mov.w     w1, [w0+6]

00002c16 <.LSM99>:
    2c16:	1e 00 78    	mov.w     [w14], w0
    2c18:	de 00 90    	mov.w     [w14+10], w1
    2c1a:	41 00 98    	mov.w     w1, [w0+8]

00002c1c <.LSM100>:
    2c1c:	1e 00 78    	mov.w     [w14], w0
    2c1e:	ee 00 90    	mov.w     [w14+12], w1
    2c20:	51 00 98    	mov.w     w1, [w0+10]

00002c22 <.LSM101>:
    2c22:	1e 00 78    	mov.w     [w14], w0
    2c24:	fe 00 90    	mov.w     [w14+14], w1
    2c26:	61 00 98    	mov.w     w1, [w0+12]

00002c28 <.LSM102>:
    2c28:	1e 00 78    	mov.w     [w14], w0
    2c2a:	8e f8 97    	mov.b     [w14-8], w1
    2c2c:	61 48 98    	mov.b     w1, [w0+14]

00002c2e <.LSM103>:
    2c2e:	1e 00 78    	mov.w     [w14], w0
    2c30:	ee f0 97    	mov.b     [w14-10], w1
    2c32:	71 48 98    	mov.b     w1, [w0+15]

00002c34 <.LSM104>:
    2c34:	1e 00 78    	mov.w     [w14], w0
    2c36:	ae b8 97    	mov.w     [w14-12], w1
    2c38:	01 08 98    	mov.w     w1, [w0+16]

00002c3a <.LSM105>:
    2c3a:	1e 00 78    	mov.w     [w14], w0
    2c3c:	9e b8 97    	mov.w     [w14-14], w1
    2c3e:	11 08 98    	mov.w     w1, [w0+18]

00002c40 <.LSM106>:
    2c40:	1e 00 78    	mov.w     [w14], w0
    2c42:	8e f0 97    	mov.b     [w14-16], w1
    2c44:	41 50 98    	mov.b     w1, [w0+20]

00002c46 <.LSM107>:
    2c46:	1e 00 78    	mov.w     [w14], w0
    2c48:	ee e8 97    	mov.b     [w14-18], w1
    2c4a:	51 50 98    	mov.b     w1, [w0+21]

00002c4c <.LSM108>:
    2c4c:	1e 00 78    	mov.w     [w14], w0
    2c4e:	ee b0 97    	mov.w     [w14-20], w1
    2c50:	31 08 98    	mov.w     w1, [w0+22]

00002c52 <.LSM109>:
    2c52:	1e 00 78    	mov.w     [w14], w0
    2c54:	de b0 97    	mov.w     [w14-22], w1
    2c56:	41 08 98    	mov.w     w1, [w0+24]

00002c58 <.LSM110>:
    2c58:	1e 00 78    	mov.w     [w14], w0
    2c5a:	80 00 eb    	clr.w     w1
    2c5c:	51 08 98    	mov.w     w1, [w0+26]

00002c5e <.LSM111>:
    2c5e:	1e 00 78    	mov.w     [w14], w0
    2c60:	80 00 eb    	clr.w     w1
    2c62:	61 08 98    	mov.w     w1, [w0+28]

00002c64 <.LSM112>:
    2c64:	1e 00 78    	mov.w     [w14], w0
    2c66:	80 00 eb    	clr.w     w1
    2c68:	71 08 98    	mov.w     w1, [w0+30]

00002c6a <.LSM113>:
    2c6a:	1e 00 78    	mov.w     [w14], w0
    2c6c:	80 00 eb    	clr.w     w1
    2c6e:	01 10 98    	mov.w     w1, [w0+32]

00002c70 <.LSM114>:
    2c70:	1e 00 78    	mov.w     [w14], w0
    2c72:	80 00 eb    	clr.w     w1
    2c74:	11 10 98    	mov.w     w1, [w0+34]

00002c76 <.LSM115>:
    2c76:	1e 00 78    	mov.w     [w14], w0
    2c78:	80 00 eb    	clr.w     w1
    2c7a:	21 10 98    	mov.w     w1, [w0+36]

00002c7c <.LSM116>:
    2c7c:	1e 00 78    	mov.w     [w14], w0
    2c7e:	80 00 eb    	clr.w     w1
    2c80:	31 10 98    	mov.w     w1, [w0+38]

00002c82 <.LSM117>:
    2c82:	1e 00 78    	mov.w     [w14], w0
    2c84:	80 00 eb    	clr.w     w1
    2c86:	41 10 98    	mov.w     w1, [w0+40]

00002c88 <.LSM118>:
    2c88:	1e 00 78    	mov.w     [w14], w0
    2c8a:	80 00 eb    	clr.w     w1
    2c8c:	51 10 98    	mov.w     w1, [w0+42]

00002c8e <.LSM119>:
    2c8e:	1e 00 78    	mov.w     [w14], w0
    2c90:	80 00 eb    	clr.w     w1
    2c92:	61 10 98    	mov.w     w1, [w0+44]

00002c94 <.LSM120>:
    2c94:	1e 00 78    	mov.w     [w14], w0
    2c96:	80 00 eb    	clr.w     w1
    2c98:	71 10 98    	mov.w     w1, [w0+46]

00002c9a <.LSM121>:
    2c9a:	1e 00 78    	mov.w     [w14], w0
    2c9c:	80 00 eb    	clr.w     w1
    2c9e:	01 18 98    	mov.w     w1, [w0+48]

00002ca0 <.LSM122>:
    2ca0:	1e 00 78    	mov.w     [w14], w0
    2ca2:	80 00 eb    	clr.w     w1
    2ca4:	11 18 98    	mov.w     w1, [w0+50]

00002ca6 <.LSM123>:
    2ca6:	1e 00 78    	mov.w     [w14], w0
    2ca8:	80 00 eb    	clr.w     w1
    2caa:	21 18 98    	mov.w     w1, [w0+52]

00002cac <.LSM124>:
    2cac:	1e 00 78    	mov.w     [w14], w0
    2cae:	11 00 20    	mov.w     #0x1, w1
    2cb0:	31 18 98    	mov.w     w1, [w0+54]

00002cb2 <.LSM125>:
    2cb2:	1e 00 78    	mov.w     [w14], w0
    2cb4:	80 00 eb    	clr.w     w1
    2cb6:	41 18 98    	mov.w     w1, [w0+56]

00002cb8 <.LSM126>:
    2cb8:	1e 00 78    	mov.w     [w14], w0
    2cba:	80 00 eb    	clr.w     w1
    2cbc:	51 18 98    	mov.w     w1, [w0+58]

00002cbe <.LSM127>:
    2cbe:	00 80 fa    	ulnk      
    2cc0:	00 00 06    	return    

00002cc2 <_uart_open>:
    2cc2:	10 00 fa    	lnk       #0x10
    2cc4:	88 1f 78    	mov.w     w8, [w15++]
    2cc6:	00 0f 78    	mov.w     w0, [w14]
    2cc8:	11 07 98    	mov.w     w1, [w14+2]
    2cca:	22 07 98    	mov.w     w2, [w14+4]
    2ccc:	33 07 98    	mov.w     w3, [w14+6]
    2cce:	44 07 98    	mov.w     w4, [w14+8]
    2cd0:	56 07 98    	mov.w     w6, [w14+10]
    2cd2:	67 07 98    	mov.w     w7, [w14+12]
    2cd4:	65 4f 98    	mov.b     w5, [w14+14]

00002cd6 <.LSM129>:
    2cd6:	1e 00 78    	mov.w     [w14], w0
    2cd8:	10 00 78    	mov.w     [w0], w0
    2cda:	80 00 eb    	clr.w     w1
    2cdc:	01 08 78    	mov.w     w1, [w0]

00002cde <.LSM130>:
    2cde:	1e 00 90    	mov.w     [w14+2], w0
    2ce0:	60 00 90    	mov.w     [w0+12], w0
    2ce2:	e1 0f 40    	add.w     w0, #0x1, [w15]
    2ce4:	0e 02 32    	bra       Z, 0x3102 <.L73>
    2ce6:	2e 00 90    	mov.w     [w14+4], w0
    2ce8:	60 00 90    	mov.w     [w0+12], w0
    2cea:	e1 0f 40    	add.w     w0, #0x1, [w15]
    2cec:	0c 02 32    	bra       Z, 0x3106 <.L74>

00002cee <.LSM131>:
    2cee:	1e 00 90    	mov.w     [w14+2], w0
    2cf0:	00 08 90    	mov.w     [w0+16], w0
    2cf2:	e0 0f 50    	sub.w     w0, #0x0, [w15]
    2cf4:	69 00 3a    	bra       NZ, 0x2dc8 <.L44>
    2cf6:	2e 00 90    	mov.w     [w14+4], w0
    2cf8:	00 08 90    	mov.w     [w0+16], w0
    2cfa:	e0 0f 50    	sub.w     w0, #0x0, [w15]
    2cfc:	65 00 3a    	bra       NZ, 0x2dc8 <.L44>

00002cfe <.LSM132>:
    2cfe:	1e 00 90    	mov.w     [w14+2], w0
    2d00:	f6 07 07    	rcall     0x3cee <_pin_digitalOut>

00002d02 <.LSM133>:
    2d02:	1e 00 90    	mov.w     [w14+2], w0
    2d04:	51 08 07    	rcall     0x3da8 <_pin_set>

00002d06 <.LSM134>:
    2d06:	2e 00 90    	mov.w     [w14+4], w0
    2d08:	cb 07 07    	rcall     0x3ca0 <_pin_digitalIn>

00002d0a <.LSM135>:
    2d0a:	1e 00 78    	mov.w     [w14], w0
    2d0c:	9e 00 90    	mov.w     [w14+2], w1
    2d0e:	51 08 98    	mov.w     w1, [w0+26]

00002d10 <.LSM136>:
    2d10:	1e 00 90    	mov.w     [w14+2], w0
    2d12:	9e 00 78    	mov.w     [w14], w1
    2d14:	01 08 98    	mov.w     w1, [w0+16]

00002d16 <.LSM137>:
    2d16:	1e 00 90    	mov.w     [w14+2], w0
    2d18:	80 00 eb    	clr.w     w1
    2d1a:	11 08 98    	mov.w     w1, [w0+18]

00002d1c <.LSM138>:
    2d1c:	1e 00 90    	mov.w     [w14+2], w0
    2d1e:	80 00 eb    	clr.w     w1
    2d20:	21 08 98    	mov.w     w1, [w0+20]

00002d22 <.LSM139>:
    2d22:	1e 00 78    	mov.w     [w14], w0
    2d24:	ae 00 90    	mov.w     [w14+4], w1
    2d26:	61 08 98    	mov.w     w1, [w0+28]

00002d28 <.LSM140>:
    2d28:	2e 00 90    	mov.w     [w14+4], w0
    2d2a:	9e 00 78    	mov.w     [w14], w1
    2d2c:	01 08 98    	mov.w     w1, [w0+16]

00002d2e <.LSM141>:
    2d2e:	2e 00 90    	mov.w     [w14+4], w0
    2d30:	80 00 eb    	clr.w     w1
    2d32:	11 08 98    	mov.w     w1, [w0+18]

00002d34 <.LSM142>:
    2d34:	2e 00 90    	mov.w     [w14+4], w0
    2d36:	80 00 eb    	clr.w     w1
    2d38:	21 08 98    	mov.w     w1, [w0+20]

00002d3a <.LSM143>:
    2d3a:	11 3a 80    	mov.w     0x742, w1
    2d3c:	f0 0b 20    	mov.w     #0xbf, w0
    2d3e:	00 81 60    	and.w     w1, w0, w2
    2d40:	60 04 20    	mov.w     #0x46, w0
    2d42:	71 05 20    	mov.w     #0x57, w1
    2d44:	23 74 20    	mov.w     #0x742, w3
    2d46:	80 49 78    	mov.b     w0, [w3]
    2d48:	81 49 78    	mov.b     w1, [w3]
    2d4a:	82 49 78    	mov.b     w2, [w3]

00002d4c <.LSM144>:
    2d4c:	1e 00 90    	mov.w     [w14+2], w0
    2d4e:	f0 00 90    	mov.w     [w0+14], w1
    2d50:	1e 00 90    	mov.w     [w14+2], w0
    2d52:	70 00 90    	mov.w     [w0+14], w0
    2d54:	10 01 78    	mov.w     [w0], w2
    2d56:	1e 00 90    	mov.w     [w14+2], w0
    2d58:	20 48 90    	mov.b     [w0+10], w0
    2d5a:	00 80 fb    	ze        w0, w0
    2d5c:	f3 03 20    	mov.w     #0x3f, w3
    2d5e:	00 18 dd    	sl.w      w3, w0, w0
    2d60:	00 80 ea    	com.w     w0, w0
    2d62:	00 00 61    	and.w     w2, w0, w0
    2d64:	80 08 78    	mov.w     w0, [w1]

00002d66 <.LSM145>:
    2d66:	1e 00 90    	mov.w     [w14+2], w0
    2d68:	f0 00 90    	mov.w     [w0+14], w1
    2d6a:	1e 00 90    	mov.w     [w14+2], w0
    2d6c:	70 00 90    	mov.w     [w0+14], w0
    2d6e:	10 01 78    	mov.w     [w0], w2
    2d70:	1e 00 78    	mov.w     [w14], w0
    2d72:	b0 09 90    	mov.w     [w0+22], w3
    2d74:	1e 00 90    	mov.w     [w14+2], w0
    2d76:	20 48 90    	mov.b     [w0+10], w0
    2d78:	00 80 fb    	ze        w0, w0
    2d7a:	00 18 dd    	sl.w      w3, w0, w0
    2d7c:	00 00 71    	ior.w     w2, w0, w0
    2d7e:	80 08 78    	mov.w     w0, [w1]

00002d80 <.LSM146>:
    2d80:	1e 00 78    	mov.w     [w14], w0
    2d82:	80 08 90    	mov.w     [w0+16], w1
    2d84:	1e 00 78    	mov.w     [w14], w0
    2d86:	00 08 90    	mov.w     [w0+16], w0
    2d88:	10 01 78    	mov.w     [w0], w2
    2d8a:	1e 00 78    	mov.w     [w14], w0
    2d8c:	40 50 90    	mov.b     [w0+20], w0
    2d8e:	00 80 fb    	ze        w0, w0
    2d90:	f3 03 20    	mov.w     #0x3f, w3
    2d92:	00 18 dd    	sl.w      w3, w0, w0
    2d94:	00 80 ea    	com.w     w0, w0
    2d96:	00 00 61    	and.w     w2, w0, w0
    2d98:	80 08 78    	mov.w     w0, [w1]

00002d9a <.LSM147>:
    2d9a:	1e 00 78    	mov.w     [w14], w0
    2d9c:	80 08 90    	mov.w     [w0+16], w1
    2d9e:	1e 00 78    	mov.w     [w14], w0
    2da0:	00 08 90    	mov.w     [w0+16], w0
    2da2:	10 01 78    	mov.w     [w0], w2
    2da4:	2e 00 90    	mov.w     [w14+4], w0
    2da6:	e0 01 90    	mov.w     [w0+12], w3
    2da8:	1e 00 78    	mov.w     [w14], w0
    2daa:	40 50 90    	mov.b     [w0+20], w0
    2dac:	00 80 fb    	ze        w0, w0
    2dae:	00 18 dd    	sl.w      w3, w0, w0
    2db0:	00 00 71    	ior.w     w2, w0, w0
    2db2:	80 08 78    	mov.w     w0, [w1]

00002db4 <.LSM148>:
    2db4:	11 3a 80    	mov.w     0x742, w1
    2db6:	00 04 20    	mov.w     #0x40, w0
    2db8:	00 81 70    	ior.w     w1, w0, w2
    2dba:	60 04 20    	mov.w     #0x46, w0
    2dbc:	71 05 20    	mov.w     #0x57, w1
    2dbe:	23 74 20    	mov.w     #0x742, w3
    2dc0:	80 49 78    	mov.b     w0, [w3]
    2dc2:	81 49 78    	mov.b     w1, [w3]
    2dc4:	82 49 78    	mov.b     w2, [w3]
    2dc6:	0a 00 37    	bra       0x2ddc <.L45>

00002dc8 <.L44>:
    2dc8:	1e 00 78    	mov.w     [w14], w0
    2dca:	d0 08 90    	mov.w     [w0+26], w1
    2dcc:	1e 00 90    	mov.w     [w14+2], w0
    2dce:	80 8f 50    	sub.w     w1, w0, [w15]
    2dd0:	9c 01 3a    	bra       NZ, 0x310a <.L75>
    2dd2:	1e 00 78    	mov.w     [w14], w0
    2dd4:	e0 08 90    	mov.w     [w0+28], w1
    2dd6:	2e 00 90    	mov.w     [w14+4], w0
    2dd8:	80 8f 50    	sub.w     w1, w0, [w15]
    2dda:	99 01 3a    	bra       NZ, 0x310e <.L76>

00002ddc <.L45>:
    2ddc:	3e 00 90    	mov.w     [w14+6], w0
    2dde:	e0 0f 50    	sub.w     w0, #0x0, [w15]
    2de0:	87 00 32    	bra       Z, 0x2ef0 <.L47>
    2de2:	4e 00 90    	mov.w     [w14+8], w0
    2de4:	e0 0f 50    	sub.w     w0, #0x0, [w15]
    2de6:	84 00 32    	bra       Z, 0x2ef0 <.L47>

00002de8 <.LSM151>:
    2de8:	3e 00 90    	mov.w     [w14+6], w0
    2dea:	60 00 90    	mov.w     [w0+12], w0
    2dec:	e1 0f 40    	add.w     w0, #0x1, [w15]
    2dee:	91 01 32    	bra       Z, 0x3112 <.L77>
    2df0:	4e 00 90    	mov.w     [w14+8], w0
    2df2:	60 00 90    	mov.w     [w0+12], w0
    2df4:	e1 0f 40    	add.w     w0, #0x1, [w15]
    2df6:	8f 01 32    	bra       Z, 0x3116 <.L78>

00002df8 <.LSM152>:
    2df8:	3e 00 90    	mov.w     [w14+6], w0
    2dfa:	00 08 90    	mov.w     [w0+16], w0
    2dfc:	e0 0f 50    	sub.w     w0, #0x0, [w15]
    2dfe:	69 00 3a    	bra       NZ, 0x2ed2 <.L50>
    2e00:	4e 00 90    	mov.w     [w14+8], w0
    2e02:	00 08 90    	mov.w     [w0+16], w0
    2e04:	e0 0f 50    	sub.w     w0, #0x0, [w15]
    2e06:	65 00 3a    	bra       NZ, 0x2ed2 <.L50>

00002e08 <.LSM153>:
    2e08:	3e 00 90    	mov.w     [w14+6], w0
    2e0a:	71 07 07    	rcall     0x3cee <_pin_digitalOut>

00002e0c <.LSM154>:
    2e0c:	3e 00 90    	mov.w     [w14+6], w0
    2e0e:	cc 07 07    	rcall     0x3da8 <_pin_set>

00002e10 <.LSM155>:
    2e10:	4e 00 90    	mov.w     [w14+8], w0
    2e12:	46 07 07    	rcall     0x3ca0 <_pin_digitalIn>

00002e14 <.LSM156>:
    2e14:	1e 00 78    	mov.w     [w14], w0
    2e16:	be 00 90    	mov.w     [w14+6], w1
    2e18:	71 08 98    	mov.w     w1, [w0+30]

00002e1a <.LSM157>:
    2e1a:	3e 00 90    	mov.w     [w14+6], w0
    2e1c:	9e 00 78    	mov.w     [w14], w1
    2e1e:	01 08 98    	mov.w     w1, [w0+16]

00002e20 <.LSM158>:
    2e20:	3e 00 90    	mov.w     [w14+6], w0
    2e22:	80 00 eb    	clr.w     w1
    2e24:	11 08 98    	mov.w     w1, [w0+18]

00002e26 <.LSM159>:
    2e26:	3e 00 90    	mov.w     [w14+6], w0
    2e28:	80 00 eb    	clr.w     w1
    2e2a:	21 08 98    	mov.w     w1, [w0+20]

00002e2c <.LSM160>:
    2e2c:	1e 00 78    	mov.w     [w14], w0
    2e2e:	ce 00 90    	mov.w     [w14+8], w1
    2e30:	01 10 98    	mov.w     w1, [w0+32]

00002e32 <.LSM161>:
    2e32:	4e 00 90    	mov.w     [w14+8], w0
    2e34:	9e 00 78    	mov.w     [w14], w1
    2e36:	01 08 98    	mov.w     w1, [w0+16]

00002e38 <.LSM162>:
    2e38:	4e 00 90    	mov.w     [w14+8], w0
    2e3a:	80 00 eb    	clr.w     w1
    2e3c:	11 08 98    	mov.w     w1, [w0+18]

00002e3e <.LSM163>:
    2e3e:	4e 00 90    	mov.w     [w14+8], w0
    2e40:	80 00 eb    	clr.w     w1
    2e42:	21 08 98    	mov.w     w1, [w0+20]

00002e44 <.LSM164>:
    2e44:	11 3a 80    	mov.w     0x742, w1
    2e46:	f0 0b 20    	mov.w     #0xbf, w0
    2e48:	00 81 60    	and.w     w1, w0, w2
    2e4a:	60 04 20    	mov.w     #0x46, w0
    2e4c:	71 05 20    	mov.w     #0x57, w1
    2e4e:	23 74 20    	mov.w     #0x742, w3
    2e50:	80 49 78    	mov.b     w0, [w3]
    2e52:	81 49 78    	mov.b     w1, [w3]
    2e54:	82 49 78    	mov.b     w2, [w3]

00002e56 <.LSM165>:
    2e56:	3e 00 90    	mov.w     [w14+6], w0
    2e58:	f0 00 90    	mov.w     [w0+14], w1
    2e5a:	3e 00 90    	mov.w     [w14+6], w0
    2e5c:	70 00 90    	mov.w     [w0+14], w0
    2e5e:	10 01 78    	mov.w     [w0], w2
    2e60:	3e 00 90    	mov.w     [w14+6], w0
    2e62:	20 48 90    	mov.b     [w0+10], w0
    2e64:	00 80 fb    	ze        w0, w0
    2e66:	f3 03 20    	mov.w     #0x3f, w3
    2e68:	00 18 dd    	sl.w      w3, w0, w0
    2e6a:	00 80 ea    	com.w     w0, w0
    2e6c:	00 00 61    	and.w     w2, w0, w0
    2e6e:	80 08 78    	mov.w     w0, [w1]

00002e70 <.LSM166>:
    2e70:	3e 00 90    	mov.w     [w14+6], w0
    2e72:	f0 00 90    	mov.w     [w0+14], w1
    2e74:	3e 00 90    	mov.w     [w14+6], w0
    2e76:	70 00 90    	mov.w     [w0+14], w0
    2e78:	10 01 78    	mov.w     [w0], w2
    2e7a:	1e 00 78    	mov.w     [w14], w0
    2e7c:	c0 09 90    	mov.w     [w0+24], w3
    2e7e:	3e 00 90    	mov.w     [w14+6], w0
    2e80:	20 48 90    	mov.b     [w0+10], w0
    2e82:	00 80 fb    	ze        w0, w0
    2e84:	00 18 dd    	sl.w      w3, w0, w0
    2e86:	00 00 71    	ior.w     w2, w0, w0
    2e88:	80 08 78    	mov.w     w0, [w1]

00002e8a <.LSM167>:
    2e8a:	1e 00 78    	mov.w     [w14], w0
    2e8c:	90 08 90    	mov.w     [w0+18], w1
    2e8e:	1e 00 78    	mov.w     [w14], w0
    2e90:	10 08 90    	mov.w     [w0+18], w0
    2e92:	10 01 78    	mov.w     [w0], w2
    2e94:	1e 00 78    	mov.w     [w14], w0
    2e96:	50 50 90    	mov.b     [w0+21], w0
    2e98:	00 80 fb    	ze        w0, w0
    2e9a:	f3 03 20    	mov.w     #0x3f, w3
    2e9c:	00 18 dd    	sl.w      w3, w0, w0
    2e9e:	00 80 ea    	com.w     w0, w0
    2ea0:	00 00 61    	and.w     w2, w0, w0
    2ea2:	80 08 78    	mov.w     w0, [w1]

00002ea4 <.LSM168>:
    2ea4:	1e 00 78    	mov.w     [w14], w0
    2ea6:	90 08 90    	mov.w     [w0+18], w1
    2ea8:	1e 00 78    	mov.w     [w14], w0
    2eaa:	10 08 90    	mov.w     [w0+18], w0
    2eac:	10 01 78    	mov.w     [w0], w2
    2eae:	4e 00 90    	mov.w     [w14+8], w0
    2eb0:	e0 01 90    	mov.w     [w0+12], w3
    2eb2:	1e 00 78    	mov.w     [w14], w0
    2eb4:	50 50 90    	mov.b     [w0+21], w0
    2eb6:	00 80 fb    	ze        w0, w0
    2eb8:	00 18 dd    	sl.w      w3, w0, w0
    2eba:	00 00 71    	ior.w     w2, w0, w0
    2ebc:	80 08 78    	mov.w     w0, [w1]

00002ebe <.LSM169>:
    2ebe:	11 3a 80    	mov.w     0x742, w1
    2ec0:	00 04 20    	mov.w     #0x40, w0
    2ec2:	00 81 70    	ior.w     w1, w0, w2
    2ec4:	60 04 20    	mov.w     #0x46, w0
    2ec6:	71 05 20    	mov.w     #0x57, w1
    2ec8:	23 74 20    	mov.w     #0x742, w3
    2eca:	80 49 78    	mov.b     w0, [w3]
    2ecc:	81 49 78    	mov.b     w1, [w3]
    2ece:	82 49 78    	mov.b     w2, [w3]
    2ed0:	0a 00 37    	bra       0x2ee6 <.L51>

00002ed2 <.L50>:
    2ed2:	1e 00 78    	mov.w     [w14], w0
    2ed4:	f0 08 90    	mov.w     [w0+30], w1
    2ed6:	3e 00 90    	mov.w     [w14+6], w0
    2ed8:	80 8f 50    	sub.w     w1, w0, [w15]
    2eda:	1f 01 3a    	bra       NZ, 0x311a <.L79>
    2edc:	1e 00 78    	mov.w     [w14], w0
    2ede:	80 10 90    	mov.w     [w0+32], w1
    2ee0:	4e 00 90    	mov.w     [w14+8], w0
    2ee2:	80 8f 50    	sub.w     w1, w0, [w15]
    2ee4:	1c 01 3a    	bra       NZ, 0x311e <.L80>

00002ee6 <.L51>:
    2ee6:	1e 00 78    	mov.w     [w14], w0
    2ee8:	10 00 78    	mov.w     [w0], w0
    2eea:	01 20 20    	mov.w     #0x200, w1
    2eec:	01 08 78    	mov.w     w1, [w0]
    2eee:	06 00 37    	bra       0x2efc <.L53>

00002ef0 <.L47>:
    2ef0:	3e 00 90    	mov.w     [w14+6], w0
    2ef2:	e0 0f 50    	sub.w     w0, #0x0, [w15]
    2ef4:	16 01 3a    	bra       NZ, 0x3122 <.L81>
    2ef6:	4e 00 90    	mov.w     [w14+8], w0
    2ef8:	e0 0f 50    	sub.w     w0, #0x0, [w15]
    2efa:	15 01 3a    	bra       NZ, 0x3126 <.L82>

00002efc <.L53>:
    2efc:	18 c0 b3    	mov.b     #0x1, w8
    2efe:	02 40 22    	mov.w     #0x2400, w2
    2f00:	43 a7 24    	mov.w     #0x4a74, w3
    2f02:	5e 00 90    	mov.w     [w14+10], w0
    2f04:	ee 00 90    	mov.w     [w14+12], w1
    2f06:	3f f2 07    	rcall     0x1386 <___gesf2>
    2f08:	e0 0f 50    	sub.w     w0, #0x0, [w15]
    2f0a:	01 00 3c    	bra       GT, 0x2f0e <.L55>
    2f0c:	00 44 eb    	clr.b     w8

00002f0e <.L55>:
    2f0e:	e0 4f 54    	sub.b     w8, #0x0, [w15]
    2f10:	04 00 32    	bra       Z, 0x2f1a <.L56>

00002f12 <.LSM174>:
    2f12:	00 40 22    	mov.w     #0x2400, w0
    2f14:	41 a7 24    	mov.w     #0x4a74, w1
    2f16:	50 07 98    	mov.w     w0, [w14+10]
    2f18:	61 07 98    	mov.w     w1, [w14+12]

00002f1a <.L56>:
    2f1a:	18 c0 b3    	mov.b     #0x1, w8
    2f1c:	02 40 22    	mov.w     #0x2400, w2
    2f1e:	43 17 24    	mov.w     #0x4174, w3
    2f20:	5e 00 90    	mov.w     [w14+10], w0
    2f22:	ee 00 90    	mov.w     [w14+12], w1
    2f24:	2e f2 07    	rcall     0x1382 <___eqsf2>
    2f26:	e0 0f 50    	sub.w     w0, #0x0, [w15]
    2f28:	01 00 35    	bra       LT, 0x2f2c <.L57>
    2f2a:	00 44 eb    	clr.b     w8

00002f2c <.L57>:
    2f2c:	e0 4f 54    	sub.b     w8, #0x0, [w15]
    2f2e:	04 00 32    	bra       Z, 0x2f38 <.L58>

00002f30 <.LSM176>:
    2f30:	00 40 22    	mov.w     #0x2400, w0
    2f32:	41 17 24    	mov.w     #0x4174, w1
    2f34:	50 07 98    	mov.w     w0, [w14+10]
    2f36:	61 07 98    	mov.w     w1, [w14+12]

00002f38 <.L58>:
    2f38:	18 c0 b3    	mov.b     #0x1, w8
    2f3a:	02 40 22    	mov.w     #0x2400, w2
    2f3c:	43 27 24    	mov.w     #0x4274, w3
    2f3e:	5e 00 90    	mov.w     [w14+10], w0
    2f40:	ee 00 90    	mov.w     [w14+12], w1
    2f42:	1f f2 07    	rcall     0x1382 <___eqsf2>
    2f44:	e0 0f 50    	sub.w     w0, #0x0, [w15]
    2f46:	01 00 34    	bra       LE, 0x2f4a <.L59>
    2f48:	00 44 eb    	clr.b     w8

00002f4a <.L59>:
    2f4a:	e0 4f 54    	sub.b     w8, #0x0, [w15]
    2f4c:	0f 00 32    	bra       Z, 0x2f6c <.L60>

00002f4e <.LSM178>:
    2f4e:	1e 00 78    	mov.w     [w14], w0
    2f50:	40 04 90    	mov.w     [w0+8], w8
    2f52:	5e 01 90    	mov.w     [w14+10], w2
    2f54:	ee 01 90    	mov.w     [w14+12], w3
    2f56:	00 40 22    	mov.w     #0x2400, w0
    2f58:	41 97 24    	mov.w     #0x4974, w1
    2f5a:	d1 f1 07    	rcall     0x12fe <___divsf3>
    2f5c:	02 00 20    	mov.w     #0x0, w2
    2f5e:	03 f0 23    	mov.w     #0x3f00, w3
    2f60:	71 f1 07    	rcall     0x1244 <___addsf3>
    2f62:	13 f2 07    	rcall     0x138a <___fixunssfsi>
    2f64:	00 00 78    	mov.w     w0, w0
    2f66:	00 00 e9    	dec.w     w0, w0
    2f68:	00 0c 78    	mov.w     w0, [w8]
    2f6a:	15 00 37    	bra       0x2f96 <.L61>

00002f6c <.L60>:
    2f6c:	1e 00 78    	mov.w     [w14], w0
    2f6e:	10 00 78    	mov.w     [w0], w0
    2f70:	9e 00 78    	mov.w     [w14], w1
    2f72:	91 00 78    	mov.w     [w1], w1
    2f74:	91 00 78    	mov.w     [w1], w1
    2f76:	01 30 a0    	bset.w    w1, #0x3
    2f78:	01 08 78    	mov.w     w1, [w0]

00002f7a <.LSM180>:
    2f7a:	1e 00 78    	mov.w     [w14], w0
    2f7c:	40 04 90    	mov.w     [w0+8], w8
    2f7e:	5e 01 90    	mov.w     [w14+10], w2
    2f80:	ee 01 90    	mov.w     [w14+12], w3
    2f82:	00 40 22    	mov.w     #0x2400, w0
    2f84:	41 a7 24    	mov.w     #0x4a74, w1
    2f86:	bb f1 07    	rcall     0x12fe <___divsf3>
    2f88:	02 00 20    	mov.w     #0x0, w2
    2f8a:	03 f0 23    	mov.w     #0x3f00, w3
    2f8c:	5b f1 07    	rcall     0x1244 <___addsf3>
    2f8e:	fd f1 07    	rcall     0x138a <___fixunssfsi>
    2f90:	00 00 78    	mov.w     w0, w0
    2f92:	00 00 e9    	dec.w     w0, w0
    2f94:	00 0c 78    	mov.w     w0, [w8]

00002f96 <.L61>:
    2f96:	ee 48 90    	mov.b     [w14+14], w1
    2f98:	50 c4 b3    	mov.b     #0x45, w0
    2f9a:	80 cf 50    	sub.b     w1, w0, [w15]
    2f9c:	04 00 32    	bra       Z, 0x2fa6 <.L62>
    2f9e:	ee 48 90    	mov.b     [w14+14], w1
    2fa0:	50 c6 b3    	mov.b     #0x65, w0
    2fa2:	80 cf 50    	sub.b     w1, w0, [w15]
    2fa4:	08 00 3a    	bra       NZ, 0x2fb6 <.L63>

00002fa6 <.L62>:
    2fa6:	1e 00 78    	mov.w     [w14], w0
    2fa8:	10 00 78    	mov.w     [w0], w0
    2faa:	9e 00 78    	mov.w     [w14], w1
    2fac:	91 00 78    	mov.w     [w1], w1
    2fae:	91 00 78    	mov.w     [w1], w1
    2fb0:	01 10 a0    	bset.w    w1, #0x1
    2fb2:	01 08 78    	mov.w     w1, [w0]
    2fb4:	18 00 37    	bra       0x2fe6 <.L64>

00002fb6 <.L63>:
    2fb6:	ee 48 90    	mov.b     [w14+14], w1
    2fb8:	f0 c4 b3    	mov.b     #0x4f, w0
    2fba:	80 cf 50    	sub.b     w1, w0, [w15]
    2fbc:	04 00 32    	bra       Z, 0x2fc6 <.L65>
    2fbe:	ee 48 90    	mov.b     [w14+14], w1
    2fc0:	f0 c6 b3    	mov.b     #0x6f, w0
    2fc2:	80 cf 50    	sub.b     w1, w0, [w15]
    2fc4:	08 00 3a    	bra       NZ, 0x2fd6 <.L66>

00002fc6 <.L65>:
    2fc6:	1e 00 78    	mov.w     [w14], w0
    2fc8:	10 00 78    	mov.w     [w0], w0
    2fca:	9e 00 78    	mov.w     [w14], w1
    2fcc:	91 00 78    	mov.w     [w1], w1
    2fce:	91 00 78    	mov.w     [w1], w1
    2fd0:	01 20 a0    	bset.w    w1, #0x2
    2fd2:	01 08 78    	mov.w     w1, [w0]
    2fd4:	08 00 37    	bra       0x2fe6 <.L64>

00002fd6 <.L66>:
    2fd6:	ee 48 90    	mov.b     [w14+14], w1
    2fd8:	e0 c4 b3    	mov.b     #0x4e, w0
    2fda:	80 cf 50    	sub.b     w1, w0, [w15]
    2fdc:	04 00 32    	bra       Z, 0x2fe6 <.L64>
    2fde:	ee 48 90    	mov.b     [w14+14], w1
    2fe0:	e0 c6 b3    	mov.b     #0x6e, w0
    2fe2:	80 cf 50    	sub.b     w1, w0, [w15]
    2fe4:	a2 00 3a    	bra       NZ, 0x312a <.L83>

00002fe6 <.L64>:
    2fe6:	4e b8 97    	mov.w     [w14-8], w0
    2fe8:	e2 0f 50    	sub.w     w0, #0x2, [w15]
    2fea:	08 00 3a    	bra       NZ, 0x2ffc <.L67>

00002fec <.LSM187>:
    2fec:	1e 00 78    	mov.w     [w14], w0
    2fee:	10 00 78    	mov.w     [w0], w0
    2ff0:	9e 00 78    	mov.w     [w14], w1
    2ff2:	91 00 78    	mov.w     [w1], w1
    2ff4:	91 00 78    	mov.w     [w1], w1
    2ff6:	01 00 a0    	bset.w    w1, #0x0
    2ff8:	01 08 78    	mov.w     w1, [w0]
    2ffa:	03 00 37    	bra       0x3002 <.L68>

00002ffc <.L67>:
    2ffc:	4e b8 97    	mov.w     [w14-8], w0
    2ffe:	e1 0f 50    	sub.w     w0, #0x1, [w15]
    3000:	96 00 3a    	bra       NZ, 0x312e <.L84>

00003002 <.L68>:
    3002:	2e b8 97    	mov.w     [w14-12], w0
    3004:	e0 0f 50    	sub.w     w0, #0x0, [w15]
    3006:	04 00 3a    	bra       NZ, 0x3010 <.L69>

00003008 <.LSM190>:
    3008:	1e 00 78    	mov.w     [w14], w0
    300a:	e1 72 22    	mov.w     #0x272e, w1
    300c:	41 18 98    	mov.w     w1, [w0+56]
    300e:	36 00 37    	bra       0x307c <.L70>

00003010 <.L69>:
    3010:	1e 00 78    	mov.w     [w14], w0
    3012:	10 00 90    	mov.w     [w0+2], w0
    3014:	9e 00 78    	mov.w     [w14], w1
    3016:	91 00 90    	mov.w     [w1+2], w1
    3018:	11 01 78    	mov.w     [w1], w2
    301a:	01 00 22    	mov.w     #0x2000, w1
    301c:	81 00 71    	ior.w     w2, w1, w1
    301e:	01 08 78    	mov.w     w1, [w0]

00003020 <.LSM192>:
    3020:	1e 00 78    	mov.w     [w14], w0
    3022:	ae b8 97    	mov.w     [w14-12], w1
    3024:	11 10 98    	mov.w     w1, [w0+34]

00003026 <.LSM193>:
    3026:	1e 00 78    	mov.w     [w14], w0
    3028:	9e b8 97    	mov.w     [w14-14], w1
    302a:	21 10 98    	mov.w     w1, [w0+36]

0000302c <.LSM194>:
    302c:	1e 00 78    	mov.w     [w14], w0
    302e:	80 00 eb    	clr.w     w1
    3030:	31 10 98    	mov.w     w1, [w0+38]

00003032 <.LSM195>:
    3032:	1e 00 78    	mov.w     [w14], w0
    3034:	80 00 eb    	clr.w     w1
    3036:	41 10 98    	mov.w     w1, [w0+40]

00003038 <.LSM196>:
    3038:	1e 00 78    	mov.w     [w14], w0
    303a:	80 00 eb    	clr.w     w1
    303c:	51 10 98    	mov.w     w1, [w0+42]

0000303e <.LSM197>:
    303e:	1e 00 78    	mov.w     [w14], w0
    3040:	be b8 97    	mov.w     [w14-10], w1
    3042:	31 18 98    	mov.w     w1, [w0+54]

00003044 <.LSM198>:
    3044:	1e 00 78    	mov.w     [w14], w0
    3046:	01 77 22    	mov.w     #0x2770, w1
    3048:	41 18 98    	mov.w     w1, [w0+56]

0000304a <.LSM199>:
    304a:	1e 00 78    	mov.w     [w14], w0
    304c:	d0 00 90    	mov.w     [w0+10], w1
    304e:	1e 00 78    	mov.w     [w14], w0
    3050:	50 00 90    	mov.w     [w0+10], w0
    3052:	10 01 78    	mov.w     [w0], w2
    3054:	1e 00 78    	mov.w     [w14], w0
    3056:	60 48 90    	mov.b     [w0+14], w0
    3058:	00 80 fb    	ze        w0, w0
    305a:	13 00 20    	mov.w     #0x1, w3
    305c:	00 18 dd    	sl.w      w3, w0, w0
    305e:	00 80 ea    	com.w     w0, w0
    3060:	00 00 61    	and.w     w2, w0, w0
    3062:	80 08 78    	mov.w     w0, [w1]

00003064 <.LSM200>:
    3064:	1e 00 78    	mov.w     [w14], w0
    3066:	e0 00 90    	mov.w     [w0+12], w1
    3068:	1e 00 78    	mov.w     [w14], w0
    306a:	60 00 90    	mov.w     [w0+12], w0
    306c:	10 01 78    	mov.w     [w0], w2
    306e:	1e 00 78    	mov.w     [w14], w0
    3070:	60 48 90    	mov.b     [w0+14], w0
    3072:	00 80 fb    	ze        w0, w0
    3074:	13 00 20    	mov.w     #0x1, w3
    3076:	00 18 dd    	sl.w      w3, w0, w0
    3078:	00 00 71    	ior.w     w2, w0, w0
    307a:	80 08 78    	mov.w     w0, [w1]

0000307c <.L70>:
    307c:	0e b8 97    	mov.w     [w14-16], w0
    307e:	e0 0f 50    	sub.w     w0, #0x0, [w15]
    3080:	04 00 3a    	bra       NZ, 0x308a <.L71>

00003082 <.LSM202>:
    3082:	1e 00 78    	mov.w     [w14], w0
    3084:	21 75 22    	mov.w     #0x2752, w1
    3086:	51 18 98    	mov.w     w1, [w0+58]
    3088:	2b 00 37    	bra       0x30e0 <.L72>

0000308a <.L71>:
    308a:	1e 00 78    	mov.w     [w14], w0
    308c:	8e b8 97    	mov.w     [w14-16], w1
    308e:	61 10 98    	mov.w     w1, [w0+44]

00003090 <.LSM204>:
    3090:	1e 00 78    	mov.w     [w14], w0
    3092:	fe b0 97    	mov.w     [w14-18], w1
    3094:	71 10 98    	mov.w     w1, [w0+46]

00003096 <.LSM205>:
    3096:	1e 00 78    	mov.w     [w14], w0
    3098:	80 00 eb    	clr.w     w1
    309a:	01 18 98    	mov.w     w1, [w0+48]

0000309c <.LSM206>:
    309c:	1e 00 78    	mov.w     [w14], w0
    309e:	80 00 eb    	clr.w     w1
    30a0:	11 18 98    	mov.w     w1, [w0+50]

000030a2 <.LSM207>:
    30a2:	1e 00 78    	mov.w     [w14], w0
    30a4:	80 00 eb    	clr.w     w1
    30a6:	21 18 98    	mov.w     w1, [w0+52]

000030a8 <.LSM208>:
    30a8:	1e 00 78    	mov.w     [w14], w0
    30aa:	21 86 22    	mov.w     #0x2862, w1
    30ac:	51 18 98    	mov.w     w1, [w0+58]

000030ae <.LSM209>:
    30ae:	1e 00 78    	mov.w     [w14], w0
    30b0:	d0 00 90    	mov.w     [w0+10], w1
    30b2:	1e 00 78    	mov.w     [w14], w0
    30b4:	50 00 90    	mov.w     [w0+10], w0
    30b6:	10 01 78    	mov.w     [w0], w2
    30b8:	1e 00 78    	mov.w     [w14], w0
    30ba:	70 48 90    	mov.b     [w0+15], w0
    30bc:	00 80 fb    	ze        w0, w0
    30be:	13 00 20    	mov.w     #0x1, w3
    30c0:	00 18 dd    	sl.w      w3, w0, w0
    30c2:	00 80 ea    	com.w     w0, w0
    30c4:	00 00 61    	and.w     w2, w0, w0
    30c6:	80 08 78    	mov.w     w0, [w1]

000030c8 <.LSM210>:
    30c8:	1e 00 78    	mov.w     [w14], w0
    30ca:	e0 00 90    	mov.w     [w0+12], w1
    30cc:	1e 00 78    	mov.w     [w14], w0
    30ce:	60 00 90    	mov.w     [w0+12], w0
    30d0:	10 01 78    	mov.w     [w0], w2
    30d2:	1e 00 78    	mov.w     [w14], w0
    30d4:	70 48 90    	mov.b     [w0+15], w0
    30d6:	00 80 fb    	ze        w0, w0
    30d8:	13 00 20    	mov.w     #0x1, w3
    30da:	00 18 dd    	sl.w      w3, w0, w0
    30dc:	00 00 71    	ior.w     w2, w0, w0
    30de:	80 08 78    	mov.w     w0, [w1]

000030e0 <.L72>:
    30e0:	1e 00 78    	mov.w     [w14], w0
    30e2:	10 00 78    	mov.w     [w0], w0
    30e4:	9e 00 78    	mov.w     [w14], w1
    30e6:	91 00 78    	mov.w     [w1], w1
    30e8:	11 01 78    	mov.w     [w1], w2
    30ea:	01 00 28    	mov.w     #0x8000, w1
    30ec:	81 00 71    	ior.w     w2, w1, w1
    30ee:	01 08 78    	mov.w     w1, [w0]

000030f0 <.LSM212>:
    30f0:	1e 00 78    	mov.w     [w14], w0
    30f2:	10 00 90    	mov.w     [w0+2], w0
    30f4:	9e 00 78    	mov.w     [w14], w1
    30f6:	91 00 90    	mov.w     [w1+2], w1
    30f8:	11 01 78    	mov.w     [w1], w2
    30fa:	01 40 20    	mov.w     #0x400, w1
    30fc:	81 00 71    	ior.w     w2, w1, w1
    30fe:	01 08 78    	mov.w     w1, [w0]
    3100:	17 00 37    	bra       0x3130 <.L40>

00003102 <.L73>:
    3102:	00 00 00    	nop       
    3104:	15 00 37    	bra       0x3130 <.L40>

00003106 <.L74>:
    3106:	00 00 00    	nop       
    3108:	13 00 37    	bra       0x3130 <.L40>

0000310a <.L75>:
    310a:	00 00 00    	nop       
    310c:	11 00 37    	bra       0x3130 <.L40>

0000310e <.L76>:
    310e:	00 00 00    	nop       
    3110:	0f 00 37    	bra       0x3130 <.L40>

00003112 <.L77>:
    3112:	00 00 00    	nop       
    3114:	0d 00 37    	bra       0x3130 <.L40>

00003116 <.L78>:
    3116:	00 00 00    	nop       
    3118:	0b 00 37    	bra       0x3130 <.L40>

0000311a <.L79>:
    311a:	00 00 00    	nop       
    311c:	09 00 37    	bra       0x3130 <.L40>

0000311e <.L80>:
    311e:	00 00 00    	nop       
    3120:	07 00 37    	bra       0x3130 <.L40>

00003122 <.L81>:
    3122:	00 00 00    	nop       
    3124:	05 00 37    	bra       0x3130 <.L40>

00003126 <.L82>:
    3126:	00 00 00    	nop       
    3128:	03 00 37    	bra       0x3130 <.L40>

0000312a <.L83>:
    312a:	00 00 00    	nop       
    312c:	01 00 37    	bra       0x3130 <.L40>

0000312e <.L84>:
    312e:	00 00 00    	nop       

00003130 <.L40>:
    3130:	4f 04 78    	mov.w     [--w15], w8
    3132:	00 80 fa    	ulnk      
    3134:	00 00 06    	return    

00003136 <_uart_close>:
    3136:	02 00 fa    	lnk       #0x2
    3138:	00 0f 78    	mov.w     w0, [w14]

0000313a <.LSM222>:
    313a:	1e 00 78    	mov.w     [w14], w0
    313c:	10 00 90    	mov.w     [w0+2], w0
    313e:	9e 00 78    	mov.w     [w14], w1
    3140:	91 00 90    	mov.w     [w1+2], w1
    3142:	11 01 78    	mov.w     [w1], w2
    3144:	f1 bf 2f    	mov.w     #0xfbff, w1
    3146:	81 00 61    	and.w     w2, w1, w1
    3148:	01 08 78    	mov.w     w1, [w0]

0000314a <.LSM223>:
    314a:	1e 00 78    	mov.w     [w14], w0
    314c:	10 00 78    	mov.w     [w0], w0
    314e:	80 00 eb    	clr.w     w1
    3150:	01 08 78    	mov.w     w1, [w0]

00003152 <.LSM224>:
    3152:	1e 00 78    	mov.w     [w14], w0
    3154:	e0 00 90    	mov.w     [w0+12], w1
    3156:	1e 00 78    	mov.w     [w14], w0
    3158:	60 00 90    	mov.w     [w0+12], w0
    315a:	10 01 78    	mov.w     [w0], w2
    315c:	1e 00 78    	mov.w     [w14], w0
    315e:	60 48 90    	mov.b     [w0+14], w0
    3160:	00 80 fb    	ze        w0, w0
    3162:	13 00 20    	mov.w     #0x1, w3
    3164:	00 18 dd    	sl.w      w3, w0, w0
    3166:	00 80 ea    	com.w     w0, w0
    3168:	00 00 61    	and.w     w2, w0, w0
    316a:	80 08 78    	mov.w     w0, [w1]

0000316c <.LSM225>:
    316c:	1e 00 78    	mov.w     [w14], w0
    316e:	e0 00 90    	mov.w     [w0+12], w1
    3170:	1e 00 78    	mov.w     [w14], w0
    3172:	60 00 90    	mov.w     [w0+12], w0
    3174:	10 01 78    	mov.w     [w0], w2
    3176:	1e 00 78    	mov.w     [w14], w0
    3178:	70 48 90    	mov.b     [w0+15], w0
    317a:	00 80 fb    	ze        w0, w0
    317c:	13 00 20    	mov.w     #0x1, w3
    317e:	00 18 dd    	sl.w      w3, w0, w0
    3180:	00 80 ea    	com.w     w0, w0
    3182:	00 00 61    	and.w     w2, w0, w0
    3184:	80 08 78    	mov.w     w0, [w1]

00003186 <.LSM226>:
    3186:	1e 00 78    	mov.w     [w14], w0
    3188:	80 00 eb    	clr.w     w1
    318a:	41 18 98    	mov.w     w1, [w0+56]

0000318c <.LSM227>:
    318c:	1e 00 78    	mov.w     [w14], w0
    318e:	80 00 eb    	clr.w     w1
    3190:	51 18 98    	mov.w     w1, [w0+58]

00003192 <.LSM228>:
    3192:	1e 00 78    	mov.w     [w14], w0
    3194:	50 08 90    	mov.w     [w0+26], w0
    3196:	e0 0f 50    	sub.w     w0, #0x0, [w15]
    3198:	2f 00 32    	bra       Z, 0x31f8 <.L86>

0000319a <.LSM229>:
    319a:	11 3a 80    	mov.w     0x742, w1
    319c:	f0 0b 20    	mov.w     #0xbf, w0
    319e:	00 81 60    	and.w     w1, w0, w2
    31a0:	60 04 20    	mov.w     #0x46, w0
    31a2:	71 05 20    	mov.w     #0x57, w1
    31a4:	23 74 20    	mov.w     #0x742, w3
    31a6:	80 49 78    	mov.b     w0, [w3]
    31a8:	81 49 78    	mov.b     w1, [w3]
    31aa:	82 49 78    	mov.b     w2, [w3]

000031ac <.LSM230>:
    31ac:	1e 00 78    	mov.w     [w14], w0
    31ae:	50 08 90    	mov.w     [w0+26], w0
    31b0:	f0 00 90    	mov.w     [w0+14], w1
    31b2:	1e 00 78    	mov.w     [w14], w0
    31b4:	50 08 90    	mov.w     [w0+26], w0
    31b6:	70 00 90    	mov.w     [w0+14], w0
    31b8:	10 01 78    	mov.w     [w0], w2
    31ba:	1e 00 78    	mov.w     [w14], w0
    31bc:	50 08 90    	mov.w     [w0+26], w0
    31be:	20 48 90    	mov.b     [w0+10], w0
    31c0:	00 80 fb    	ze        w0, w0
    31c2:	f3 03 20    	mov.w     #0x3f, w3
    31c4:	00 18 dd    	sl.w      w3, w0, w0
    31c6:	00 80 ea    	com.w     w0, w0
    31c8:	00 00 61    	and.w     w2, w0, w0
    31ca:	80 08 78    	mov.w     w0, [w1]

000031cc <.LSM231>:
    31cc:	11 3a 80    	mov.w     0x742, w1
    31ce:	00 04 20    	mov.w     #0x40, w0
    31d0:	00 81 70    	ior.w     w1, w0, w2
    31d2:	60 04 20    	mov.w     #0x46, w0
    31d4:	71 05 20    	mov.w     #0x57, w1
    31d6:	23 74 20    	mov.w     #0x742, w3
    31d8:	80 49 78    	mov.b     w0, [w3]
    31da:	81 49 78    	mov.b     w1, [w3]
    31dc:	82 49 78    	mov.b     w2, [w3]

000031de <.LSM232>:
    31de:	1e 00 78    	mov.w     [w14], w0
    31e0:	50 08 90    	mov.w     [w0+26], w0
    31e2:	80 00 eb    	clr.w     w1
    31e4:	01 08 98    	mov.w     w1, [w0+16]

000031e6 <.LSM233>:
    31e6:	1e 00 78    	mov.w     [w14], w0
    31e8:	50 08 90    	mov.w     [w0+26], w0
    31ea:	81 05 07    	rcall     0x3cee <_pin_digitalOut>

000031ec <.LSM234>:
    31ec:	1e 00 78    	mov.w     [w14], w0
    31ee:	50 08 90    	mov.w     [w0+26], w0
    31f0:	db 05 07    	rcall     0x3da8 <_pin_set>

000031f2 <.LSM235>:
    31f2:	1e 00 78    	mov.w     [w14], w0
    31f4:	80 00 eb    	clr.w     w1
    31f6:	51 08 98    	mov.w     w1, [w0+26]

000031f8 <.L86>:
    31f8:	1e 00 78    	mov.w     [w14], w0
    31fa:	60 08 90    	mov.w     [w0+28], w0
    31fc:	e0 0f 50    	sub.w     w0, #0x0, [w15]
    31fe:	28 00 32    	bra       Z, 0x3250 <.L87>

00003200 <.LSM237>:
    3200:	11 3a 80    	mov.w     0x742, w1
    3202:	f0 0b 20    	mov.w     #0xbf, w0
    3204:	00 81 60    	and.w     w1, w0, w2
    3206:	60 04 20    	mov.w     #0x46, w0
    3208:	71 05 20    	mov.w     #0x57, w1
    320a:	23 74 20    	mov.w     #0x742, w3
    320c:	80 49 78    	mov.b     w0, [w3]
    320e:	81 49 78    	mov.b     w1, [w3]
    3210:	82 49 78    	mov.b     w2, [w3]

00003212 <.LSM238>:
    3212:	1e 00 78    	mov.w     [w14], w0
    3214:	80 08 90    	mov.w     [w0+16], w1
    3216:	1e 00 78    	mov.w     [w14], w0
    3218:	00 08 90    	mov.w     [w0+16], w0
    321a:	10 01 78    	mov.w     [w0], w2
    321c:	1e 00 78    	mov.w     [w14], w0
    321e:	40 50 90    	mov.b     [w0+20], w0
    3220:	00 80 fb    	ze        w0, w0
    3222:	f3 03 20    	mov.w     #0x3f, w3
    3224:	00 18 dd    	sl.w      w3, w0, w0
    3226:	00 00 71    	ior.w     w2, w0, w0
    3228:	80 08 78    	mov.w     w0, [w1]

0000322a <.LSM239>:
    322a:	11 3a 80    	mov.w     0x742, w1
    322c:	00 04 20    	mov.w     #0x40, w0
    322e:	00 81 70    	ior.w     w1, w0, w2
    3230:	60 04 20    	mov.w     #0x46, w0
    3232:	71 05 20    	mov.w     #0x57, w1
    3234:	23 74 20    	mov.w     #0x742, w3
    3236:	80 49 78    	mov.b     w0, [w3]
    3238:	81 49 78    	mov.b     w1, [w3]
    323a:	82 49 78    	mov.b     w2, [w3]

0000323c <.LSM240>:
    323c:	1e 00 78    	mov.w     [w14], w0
    323e:	60 08 90    	mov.w     [w0+28], w0
    3240:	80 00 eb    	clr.w     w1
    3242:	01 08 98    	mov.w     w1, [w0+16]

00003244 <.LSM241>:
    3244:	1e 00 78    	mov.w     [w14], w0
    3246:	60 08 90    	mov.w     [w0+28], w0
    3248:	2b 05 07    	rcall     0x3ca0 <_pin_digitalIn>

0000324a <.LSM242>:
    324a:	1e 00 78    	mov.w     [w14], w0
    324c:	80 00 eb    	clr.w     w1
    324e:	61 08 98    	mov.w     w1, [w0+28]

00003250 <.L87>:
    3250:	1e 00 78    	mov.w     [w14], w0
    3252:	70 08 90    	mov.w     [w0+30], w0
    3254:	e0 0f 50    	sub.w     w0, #0x0, [w15]
    3256:	2f 00 32    	bra       Z, 0x32b6 <.L88>

00003258 <.LSM244>:
    3258:	11 3a 80    	mov.w     0x742, w1
    325a:	f0 0b 20    	mov.w     #0xbf, w0
    325c:	00 81 60    	and.w     w1, w0, w2
    325e:	60 04 20    	mov.w     #0x46, w0
    3260:	71 05 20    	mov.w     #0x57, w1
    3262:	23 74 20    	mov.w     #0x742, w3
    3264:	80 49 78    	mov.b     w0, [w3]
    3266:	81 49 78    	mov.b     w1, [w3]
    3268:	82 49 78    	mov.b     w2, [w3]

0000326a <.LSM245>:
    326a:	1e 00 78    	mov.w     [w14], w0
    326c:	70 08 90    	mov.w     [w0+30], w0
    326e:	f0 00 90    	mov.w     [w0+14], w1
    3270:	1e 00 78    	mov.w     [w14], w0
    3272:	70 08 90    	mov.w     [w0+30], w0
    3274:	70 00 90    	mov.w     [w0+14], w0
    3276:	10 01 78    	mov.w     [w0], w2
    3278:	1e 00 78    	mov.w     [w14], w0
    327a:	70 08 90    	mov.w     [w0+30], w0
    327c:	20 48 90    	mov.b     [w0+10], w0
    327e:	00 80 fb    	ze        w0, w0
    3280:	f3 03 20    	mov.w     #0x3f, w3
    3282:	00 18 dd    	sl.w      w3, w0, w0
    3284:	00 80 ea    	com.w     w0, w0
    3286:	00 00 61    	and.w     w2, w0, w0
    3288:	80 08 78    	mov.w     w0, [w1]

0000328a <.LSM246>:
    328a:	11 3a 80    	mov.w     0x742, w1
    328c:	00 04 20    	mov.w     #0x40, w0
    328e:	00 81 70    	ior.w     w1, w0, w2
    3290:	60 04 20    	mov.w     #0x46, w0
    3292:	71 05 20    	mov.w     #0x57, w1
    3294:	23 74 20    	mov.w     #0x742, w3
    3296:	80 49 78    	mov.b     w0, [w3]
    3298:	81 49 78    	mov.b     w1, [w3]
    329a:	82 49 78    	mov.b     w2, [w3]

0000329c <.LSM247>:
    329c:	1e 00 78    	mov.w     [w14], w0
    329e:	70 08 90    	mov.w     [w0+30], w0
    32a0:	80 00 eb    	clr.w     w1
    32a2:	01 08 98    	mov.w     w1, [w0+16]

000032a4 <.LSM248>:
    32a4:	1e 00 78    	mov.w     [w14], w0
    32a6:	70 08 90    	mov.w     [w0+30], w0
    32a8:	22 05 07    	rcall     0x3cee <_pin_digitalOut>

000032aa <.LSM249>:
    32aa:	1e 00 78    	mov.w     [w14], w0
    32ac:	70 08 90    	mov.w     [w0+30], w0
    32ae:	7c 05 07    	rcall     0x3da8 <_pin_set>

000032b0 <.LSM250>:
    32b0:	1e 00 78    	mov.w     [w14], w0
    32b2:	80 00 eb    	clr.w     w1
    32b4:	71 08 98    	mov.w     w1, [w0+30]

000032b6 <.L88>:
    32b6:	1e 00 78    	mov.w     [w14], w0
    32b8:	00 10 90    	mov.w     [w0+32], w0
    32ba:	e0 0f 50    	sub.w     w0, #0x0, [w15]
    32bc:	28 00 32    	bra       Z, 0x330e <.L85>

000032be <.LSM252>:
    32be:	11 3a 80    	mov.w     0x742, w1
    32c0:	f0 0b 20    	mov.w     #0xbf, w0
    32c2:	00 81 60    	and.w     w1, w0, w2
    32c4:	60 04 20    	mov.w     #0x46, w0
    32c6:	71 05 20    	mov.w     #0x57, w1
    32c8:	23 74 20    	mov.w     #0x742, w3
    32ca:	80 49 78    	mov.b     w0, [w3]
    32cc:	81 49 78    	mov.b     w1, [w3]
    32ce:	82 49 78    	mov.b     w2, [w3]

000032d0 <.LSM253>:
    32d0:	1e 00 78    	mov.w     [w14], w0
    32d2:	90 08 90    	mov.w     [w0+18], w1
    32d4:	1e 00 78    	mov.w     [w14], w0
    32d6:	10 08 90    	mov.w     [w0+18], w0
    32d8:	10 01 78    	mov.w     [w0], w2
    32da:	1e 00 78    	mov.w     [w14], w0
    32dc:	50 50 90    	mov.b     [w0+21], w0
    32de:	00 80 fb    	ze        w0, w0
    32e0:	f3 03 20    	mov.w     #0x3f, w3
    32e2:	00 18 dd    	sl.w      w3, w0, w0
    32e4:	00 00 71    	ior.w     w2, w0, w0
    32e6:	80 08 78    	mov.w     w0, [w1]

000032e8 <.LSM254>:
    32e8:	11 3a 80    	mov.w     0x742, w1
    32ea:	00 04 20    	mov.w     #0x40, w0
    32ec:	00 81 70    	ior.w     w1, w0, w2
    32ee:	60 04 20    	mov.w     #0x46, w0
    32f0:	71 05 20    	mov.w     #0x57, w1
    32f2:	23 74 20    	mov.w     #0x742, w3
    32f4:	80 49 78    	mov.b     w0, [w3]
    32f6:	81 49 78    	mov.b     w1, [w3]
    32f8:	82 49 78    	mov.b     w2, [w3]

000032fa <.LSM255>:
    32fa:	1e 00 78    	mov.w     [w14], w0
    32fc:	00 10 90    	mov.w     [w0+32], w0
    32fe:	80 00 eb    	clr.w     w1
    3300:	01 08 98    	mov.w     w1, [w0+16]

00003302 <.LSM256>:
    3302:	1e 00 78    	mov.w     [w14], w0
    3304:	00 10 90    	mov.w     [w0+32], w0
    3306:	cc 04 07    	rcall     0x3ca0 <_pin_digitalIn>

00003308 <.LSM257>:
    3308:	1e 00 78    	mov.w     [w14], w0
    330a:	80 00 eb    	clr.w     w1
    330c:	01 10 98    	mov.w     w1, [w0+32]

0000330e <.L85>:
    330e:	00 80 fa    	ulnk      
    3310:	00 00 06    	return    

00003312 <_uart_putc>:
    3312:	04 00 fa    	lnk       #0x4
    3314:	00 0f 78    	mov.w     w0, [w14]
    3316:	21 47 98    	mov.b     w1, [w14+2]

00003318 <.LSM260>:
    3318:	1e 00 78    	mov.w     [w14], w0
    331a:	40 18 90    	mov.w     [w0+56], w0
    331c:	e0 0f 50    	sub.w     w0, #0x0, [w15]
    331e:	05 00 32    	bra       Z, 0x332a <.L90>

00003320 <.LSM261>:
    3320:	1e 00 78    	mov.w     [w14], w0
    3322:	40 19 90    	mov.w     [w0+56], w2
    3324:	ae 40 90    	mov.b     [w14+2], w1
    3326:	1e 00 78    	mov.w     [w14], w0
    3328:	02 00 01    	call      w2

0000332a <.L90>:
    332a:	00 80 fa    	ulnk      
    332c:	00 00 06    	return    

0000332e <_uart_getc>:
    332e:	02 00 fa    	lnk       #0x2
    3330:	00 0f 78    	mov.w     w0, [w14]

00003332 <.LSM264>:
    3332:	1e 00 78    	mov.w     [w14], w0
    3334:	50 18 90    	mov.w     [w0+58], w0
    3336:	e0 0f 50    	sub.w     w0, #0x0, [w15]
    3338:	05 00 32    	bra       Z, 0x3344 <.L93>

0000333a <.LSM265>:
    333a:	1e 00 78    	mov.w     [w14], w0
    333c:	d0 18 90    	mov.w     [w0+58], w1
    333e:	1e 00 78    	mov.w     [w14], w0
    3340:	01 00 01    	call      w1
    3342:	01 00 37    	bra       0x3346 <.L94>

00003344 <.L93>:
    3344:	00 c0 eb    	setm.b    w0

00003346 <.L94>:
    3346:	00 80 fa    	ulnk      
    3348:	00 00 06    	return    

0000334a <_uart_flushTxBuffer>:
    334a:	02 00 fa    	lnk       #0x2
    334c:	00 0f 78    	mov.w     w0, [w14]

0000334e <.LSM269>:
    334e:	1e 00 78    	mov.w     [w14], w0
    3350:	10 00 90    	mov.w     [w0+2], w0
    3352:	90 00 78    	mov.w     [w0], w1
    3354:	00 40 20    	mov.w     #0x400, w0
    3356:	00 80 60    	and.w     w1, w0, w0
    3358:	e0 0f 50    	sub.w     w0, #0x0, [w15]
    335a:	08 00 3a    	bra       NZ, 0x336c <.L95>

0000335c <.LSM270>:
    335c:	1e 00 78    	mov.w     [w14], w0
    335e:	10 00 90    	mov.w     [w0+2], w0
    3360:	9e 00 78    	mov.w     [w14], w1
    3362:	91 00 90    	mov.w     [w1+2], w1
    3364:	11 01 78    	mov.w     [w1], w2
    3366:	01 40 20    	mov.w     #0x400, w1
    3368:	81 00 71    	ior.w     w2, w1, w1
    336a:	01 08 78    	mov.w     w1, [w0]

0000336c <.L95>:
    336c:	00 80 fa    	ulnk      
    336e:	00 00 06    	return    

00003370 <_uart_puts>:
    3370:	04 00 fa    	lnk       #0x4
    3372:	00 0f 78    	mov.w     w0, [w14]
    3374:	11 07 98    	mov.w     w1, [w14+2]

00003376 <.LSM273>:
    3376:	08 00 37    	bra       0x3388 <.L98>

00003378 <.L99>:
    3378:	1e 00 90    	mov.w     [w14+2], w0
    337a:	10 40 78    	mov.b     [w0], w0
    337c:	9e 00 90    	mov.w     [w14+2], w1
    337e:	81 00 e8    	inc.w     w1, w1
    3380:	11 07 98    	mov.w     w1, [w14+2]
    3382:	80 40 78    	mov.b     w0, w1
    3384:	1e 00 78    	mov.w     [w14], w0
    3386:	c5 ff 07    	rcall     0x3312 <_uart_putc>

00003388 <.L98>:
    3388:	1e 00 90    	mov.w     [w14+2], w0
    338a:	10 40 78    	mov.b     [w0], w0
    338c:	e0 4f 50    	sub.b     w0, #0x0, [w15]
    338e:	f4 ff 3a    	bra       NZ, 0x3378 <.L99>

00003390 <.LSM276>:
    3390:	1e 00 78    	mov.w     [w14], w0
    3392:	db ff 07    	rcall     0x334a <_uart_flushTxBuffer>

00003394 <.LSM277>:
    3394:	00 80 fa    	ulnk      
    3396:	00 00 06    	return    

00003398 <_uart_gets>:
    3398:	0a 00 fa    	lnk       #0xa
    339a:	20 07 98    	mov.w     w0, [w14+4]
    339c:	31 07 98    	mov.w     w1, [w14+6]
    339e:	42 07 98    	mov.w     w2, [w14+8]

000033a0 <.LSM279>:
    33a0:	4e 00 90    	mov.w     [w14+8], w0
    33a2:	e0 0f 50    	sub.w     w0, #0x0, [w15]
    33a4:	87 00 32    	bra       Z, 0x34b4 <.L113>

000033a6 <.LSM280>:
    33a6:	4e 00 90    	mov.w     [w14+8], w0
    33a8:	e1 0f 50    	sub.w     w0, #0x1, [w15]
    33aa:	04 00 3a    	bra       NZ, 0x33b4 <.L103>

000033ac <.LSM281>:
    33ac:	be 00 90    	mov.w     [w14+6], w1
    33ae:	00 40 eb    	clr.b     w0
    33b0:	80 48 78    	mov.b     w0, [w1]

000033b2 <.LSM282>:
    33b2:	81 00 37    	bra       0x34b6 <.L100>

000033b4 <.L103>:
    33b4:	b1 c1 b3    	mov.b     #0x1b, w1
    33b6:	2e 00 90    	mov.w     [w14+4], w0
    33b8:	ac ff 07    	rcall     0x3312 <_uart_putc>

000033ba <.LSM284>:
    33ba:	71 c3 b3    	mov.b     #0x37, w1
    33bc:	2e 00 90    	mov.w     [w14+4], w0
    33be:	a9 ff 07    	rcall     0x3312 <_uart_putc>

000033c0 <.LSM285>:
    33c0:	2e 00 90    	mov.w     [w14+4], w0
    33c2:	c3 ff 07    	rcall     0x334a <_uart_flushTxBuffer>

000033c4 <.LSM286>:
    33c4:	3e 00 90    	mov.w     [w14+6], w0
    33c6:	10 07 98    	mov.w     w0, [w14+2]

000033c8 <.LSM287>:
    33c8:	4e 00 90    	mov.w     [w14+8], w0
    33ca:	00 0f 78    	mov.w     w0, [w14]
    33cc:	03 00 37    	bra       0x33d4 <.L112>

000033ce <.L114>:
    33ce:	00 00 00    	nop       
    33d0:	01 00 37    	bra       0x33d4 <.L112>

000033d2 <.L115>:
    33d2:	00 00 00    	nop       

000033d4 <.L112>:
    33d4:	2e 00 90    	mov.w     [w14+4], w0
    33d6:	ab ff 07    	rcall     0x332e <_uart_getc>
    33d8:	be 00 90    	mov.w     [w14+6], w1
    33da:	80 48 78    	mov.b     w0, [w1]

000033dc <.LSM290>:
    33dc:	3e 00 90    	mov.w     [w14+6], w0
    33de:	10 40 78    	mov.b     [w0], w0
    33e0:	ed 4f 50    	sub.b     w0, #0xd, [w15]
    33e2:	0c 00 3a    	bra       NZ, 0x33fc <.L104>

000033e4 <.LSM291>:
    33e4:	be 00 90    	mov.w     [w14+6], w1
    33e6:	00 40 eb    	clr.b     w0
    33e8:	80 48 78    	mov.b     w0, [w1]

000033ea <.LSM292>:
    33ea:	a1 c0 b3    	mov.b     #0xa, w1
    33ec:	2e 00 90    	mov.w     [w14+4], w0
    33ee:	91 ff 07    	rcall     0x3312 <_uart_putc>

000033f0 <.LSM293>:
    33f0:	d1 c0 b3    	mov.b     #0xd, w1
    33f2:	2e 00 90    	mov.w     [w14+4], w0
    33f4:	8e ff 07    	rcall     0x3312 <_uart_putc>

000033f6 <.LSM294>:
    33f6:	2e 00 90    	mov.w     [w14+4], w0
    33f8:	a8 ff 07    	rcall     0x334a <_uart_flushTxBuffer>
    33fa:	5d 00 37    	bra       0x34b6 <.L100>

000033fc <.L104>:
    33fc:	3e 00 90    	mov.w     [w14+6], w0
    33fe:	10 40 78    	mov.b     [w0], w0
    3400:	fb 4f 50    	sub.b     w0, #0x1b, [w15]
    3402:	16 00 3a    	bra       NZ, 0x3430 <.L105>

00003404 <.LSM296>:
    3404:	b1 c1 b3    	mov.b     #0x1b, w1
    3406:	2e 00 90    	mov.w     [w14+4], w0
    3408:	84 ff 07    	rcall     0x3312 <_uart_putc>

0000340a <.LSM297>:
    340a:	81 c3 b3    	mov.b     #0x38, w1
    340c:	2e 00 90    	mov.w     [w14+4], w0
    340e:	81 ff 07    	rcall     0x3312 <_uart_putc>

00003410 <.LSM298>:
    3410:	b1 c1 b3    	mov.b     #0x1b, w1
    3412:	2e 00 90    	mov.w     [w14+4], w0
    3414:	7e ff 07    	rcall     0x3312 <_uart_putc>

00003416 <.LSM299>:
    3416:	b1 c5 b3    	mov.b     #0x5b, w1
    3418:	2e 00 90    	mov.w     [w14+4], w0
    341a:	7b ff 07    	rcall     0x3312 <_uart_putc>

0000341c <.LSM300>:
    341c:	b1 c4 b3    	mov.b     #0x4b, w1
    341e:	2e 00 90    	mov.w     [w14+4], w0
    3420:	78 ff 07    	rcall     0x3312 <_uart_putc>

00003422 <.LSM301>:
    3422:	2e 00 90    	mov.w     [w14+4], w0
    3424:	92 ff 07    	rcall     0x334a <_uart_flushTxBuffer>

00003426 <.LSM302>:
    3426:	1e 00 90    	mov.w     [w14+2], w0
    3428:	30 07 98    	mov.w     w0, [w14+6]

0000342a <.LSM303>:
    342a:	4e 00 90    	mov.w     [w14+8], w0
    342c:	00 0f 78    	mov.w     w0, [w14]

0000342e <.LSM304>:
    342e:	41 00 37    	bra       0x34b2 <.L106>

00003430 <.L105>:
    3430:	3e 00 90    	mov.w     [w14+6], w0
    3432:	10 40 78    	mov.b     [w0], w0
    3434:	e8 4f 50    	sub.b     w0, #0x8, [w15]
    3436:	05 00 32    	bra       Z, 0x3442 <.L107>

00003438 <.LSM306>:
    3438:	3e 00 90    	mov.w     [w14+6], w0
    343a:	90 40 78    	mov.b     [w0], w1

0000343c <.LSM307>:
    343c:	f0 c7 b3    	mov.b     #0x7f, w0
    343e:	80 cf 50    	sub.b     w1, w0, [w15]
    3440:	1a 00 3a    	bra       NZ, 0x3476 <.L108>

00003442 <.L107>:
    3442:	be 00 90    	mov.w     [w14+6], w1
    3444:	1e 00 90    	mov.w     [w14+2], w0
    3446:	80 8f 50    	sub.w     w1, w0, [w15]
    3448:	10 00 36    	bra       LEU, 0x346a <.L109>

0000344a <.LSM309>:
    344a:	81 c0 b3    	mov.b     #0x8, w1
    344c:	2e 00 90    	mov.w     [w14+4], w0
    344e:	61 ff 07    	rcall     0x3312 <_uart_putc>

00003450 <.LSM310>:
    3450:	01 c2 b3    	mov.b     #0x20, w1
    3452:	2e 00 90    	mov.w     [w14+4], w0
    3454:	5e ff 07    	rcall     0x3312 <_uart_putc>

00003456 <.LSM311>:
    3456:	81 c0 b3    	mov.b     #0x8, w1
    3458:	2e 00 90    	mov.w     [w14+4], w0
    345a:	5b ff 07    	rcall     0x3312 <_uart_putc>

0000345c <.LSM312>:
    345c:	2e 00 90    	mov.w     [w14+4], w0
    345e:	75 ff 07    	rcall     0x334a <_uart_flushTxBuffer>

00003460 <.LSM313>:
    3460:	3e 00 90    	mov.w     [w14+6], w0
    3462:	00 00 e9    	dec.w     w0, w0
    3464:	30 07 98    	mov.w     w0, [w14+6]

00003466 <.LSM314>:
    3466:	1e 0f e8    	inc.w     [w14], [w14]
    3468:	05 00 37    	bra       0x3474 <.L110>

0000346a <.L109>:
    346a:	71 c0 b3    	mov.b     #0x7, w1
    346c:	2e 00 90    	mov.w     [w14+4], w0
    346e:	51 ff 07    	rcall     0x3312 <_uart_putc>

00003470 <.LSM316>:
    3470:	2e 00 90    	mov.w     [w14+4], w0
    3472:	6b ff 07    	rcall     0x334a <_uart_flushTxBuffer>

00003474 <.L110>:
    3474:	1e 00 37    	bra       0x34b2 <.L106>

00003476 <.L108>:
    3476:	1e 00 78    	mov.w     [w14], w0
    3478:	e1 0f 50    	sub.w     w0, #0x1, [w15]
    347a:	06 00 3a    	bra       NZ, 0x3488 <.L111>

0000347c <.LSM319>:
    347c:	71 c0 b3    	mov.b     #0x7, w1
    347e:	2e 00 90    	mov.w     [w14+4], w0
    3480:	48 ff 07    	rcall     0x3312 <_uart_putc>

00003482 <.LSM320>:
    3482:	2e 00 90    	mov.w     [w14+4], w0
    3484:	62 ff 07    	rcall     0x334a <_uart_flushTxBuffer>

00003486 <.LSM321>:
    3486:	15 00 37    	bra       0x34b2 <.L106>

00003488 <.L111>:
    3488:	3e 00 90    	mov.w     [w14+6], w0
    348a:	10 40 78    	mov.b     [w0], w0
    348c:	ff 4f 50    	sub.b     w0, #0x1f, [w15]
    348e:	9f ff 36    	bra       LEU, 0x33ce <.L114>
    3490:	3e 00 90    	mov.w     [w14+6], w0
    3492:	90 40 78    	mov.b     [w0], w1
    3494:	e0 c7 b3    	mov.b     #0x7e, w0
    3496:	80 cf 50    	sub.b     w1, w0, [w15]
    3498:	9c ff 3e    	bra       GTU, 0x33d2 <.L115>

0000349a <.LSM323>:
    349a:	3e 00 90    	mov.w     [w14+6], w0
    349c:	10 40 78    	mov.b     [w0], w0
    349e:	80 40 78    	mov.b     w0, w1
    34a0:	2e 00 90    	mov.w     [w14+4], w0
    34a2:	37 ff 07    	rcall     0x3312 <_uart_putc>

000034a4 <.LSM324>:
    34a4:	2e 00 90    	mov.w     [w14+4], w0
    34a6:	51 ff 07    	rcall     0x334a <_uart_flushTxBuffer>

000034a8 <.LSM325>:
    34a8:	3e 00 90    	mov.w     [w14+6], w0
    34aa:	00 00 e8    	inc.w     w0, w0
    34ac:	30 07 98    	mov.w     w0, [w14+6]

000034ae <.LSM326>:
    34ae:	1e 0f e9    	dec.w     [w14], [w14]

000034b0 <.LSM327>:
    34b0:	91 ff 37    	bra       0x33d4 <.L112>

000034b2 <.L106>:
    34b2:	90 ff 37    	bra       0x33d4 <.L112>

000034b4 <.L113>:
    34b4:	00 00 00    	nop       

000034b6 <.L100>:
    34b6:	00 80 fa    	ulnk      
    34b8:	00 00 06    	return    

000034ba <_timer_serviceInterrupt>:
    34ba:	02 00 fa    	lnk       #0x2
    34bc:	00 0f 78    	mov.w     w0, [w14]

000034be <.LSM1>:
    34be:	1e 00 78    	mov.w     [w14], w0
    34c0:	ec 01 07    	rcall     0x389a <_timer_lower>

000034c2 <.LSM2>:
    34c2:	1e 00 78    	mov.w     [w14], w0
    34c4:	10 08 90    	mov.w     [w0+18], w0
    34c6:	e0 0f 50    	sub.w     w0, #0x0, [w15]
    34c8:	05 00 32    	bra       Z, 0x34d4 <.L2>

000034ca <.LSM3>:
    34ca:	1e 00 78    	mov.w     [w14], w0
    34cc:	90 08 90    	mov.w     [w0+18], w1
    34ce:	1e 00 78    	mov.w     [w14], w0
    34d0:	01 00 01    	call      w1
    34d2:	1a 00 37    	bra       0x3508 <.L1>

000034d4 <.L2>:
    34d4:	1e 00 78    	mov.w     [w14], w0
    34d6:	20 08 90    	mov.w     [w0+20], w0
    34d8:	e0 0f 50    	sub.w     w0, #0x0, [w15]
    34da:	14 00 32    	bra       Z, 0x3504 <.L4>

000034dc <.LSM5>:
    34dc:	1e 00 78    	mov.w     [w14], w0
    34de:	00 08 90    	mov.w     [w0+16], w0
    34e0:	e0 0f 50    	sub.w     w0, #0x0, [w15]
    34e2:	0a 00 32    	bra       Z, 0x34f8 <.L5>

000034e4 <.LSM6>:
    34e4:	1e 00 78    	mov.w     [w14], w0
    34e6:	a0 08 90    	mov.w     [w0+20], w1
    34e8:	1e 00 78    	mov.w     [w14], w0
    34ea:	01 00 01    	call      w1

000034ec <.LSM7>:
    34ec:	1e 00 78    	mov.w     [w14], w0
    34ee:	00 08 90    	mov.w     [w0+16], w0
    34f0:	80 00 e9    	dec.w     w0, w1
    34f2:	1e 00 78    	mov.w     [w14], w0
    34f4:	01 08 98    	mov.w     w1, [w0+16]
    34f6:	08 00 37    	bra       0x3508 <.L1>

000034f8 <.L5>:
    34f8:	1e 00 78    	mov.w     [w14], w0
    34fa:	f7 01 07    	rcall     0x38ea <_timer_disableInterrupt>

000034fc <.LSM9>:
    34fc:	1e 00 78    	mov.w     [w14], w0
    34fe:	80 00 eb    	clr.w     w1
    3500:	21 08 98    	mov.w     w1, [w0+20]
    3502:	02 00 37    	bra       0x3508 <.L1>

00003504 <.L4>:
    3504:	1e 00 78    	mov.w     [w14], w0
    3506:	f1 01 07    	rcall     0x38ea <_timer_disableInterrupt>

00003508 <.L1>:
    3508:	00 80 fa    	ulnk      
    350a:	00 00 06    	return    

0000350c <__T1Interrupt>:
    350c:	36 00 f8    	push      0x36
    350e:	80 9f be    	mov.d     w0, [w15++]
    3510:	82 9f be    	mov.d     w2, [w15++]
    3512:	84 9f be    	mov.d     w4, [w15++]
    3514:	86 9f be    	mov.d     w6, [w15++]
    3516:	32 00 f8    	push      0x32
    3518:	00 20 20    	mov.w     #0x200, w0
    351a:	90 01 88    	mov.w     w0, 0x32
    351c:	00 00 fa    	lnk       #0x0

0000351e <.LSM13>:
    351e:	a0 b7 20    	mov.w     #0xb7a, w0
    3520:	cc ff 07    	rcall     0x34ba <_timer_serviceInterrupt>

00003522 <.LSM14>:
    3522:	00 80 fa    	ulnk      
    3524:	32 00 f9    	pop       0x32
    3526:	4f 03 be    	mov.d     [--w15], w6
    3528:	4f 02 be    	mov.d     [--w15], w4
    352a:	4f 01 be    	mov.d     [--w15], w2
    352c:	4f 00 be    	mov.d     [--w15], w0
    352e:	36 00 f9    	pop       0x36
    3530:	00 40 06    	retfie    

00003532 <__T2Interrupt>:
    3532:	36 00 f8    	push      0x36
    3534:	80 9f be    	mov.d     w0, [w15++]
    3536:	82 9f be    	mov.d     w2, [w15++]
    3538:	84 9f be    	mov.d     w4, [w15++]
    353a:	86 9f be    	mov.d     w6, [w15++]
    353c:	32 00 f8    	push      0x32
    353e:	00 20 20    	mov.w     #0x200, w0
    3540:	90 01 88    	mov.w     w0, 0x32
    3542:	00 00 fa    	lnk       #0x0

00003544 <.LSM16>:
    3544:	00 b9 20    	mov.w     #0xb90, w0
    3546:	b9 ff 07    	rcall     0x34ba <_timer_serviceInterrupt>

00003548 <.LSM17>:
    3548:	00 80 fa    	ulnk      
    354a:	32 00 f9    	pop       0x32
    354c:	4f 03 be    	mov.d     [--w15], w6
    354e:	4f 02 be    	mov.d     [--w15], w4
    3550:	4f 01 be    	mov.d     [--w15], w2
    3552:	4f 00 be    	mov.d     [--w15], w0
    3554:	36 00 f9    	pop       0x36
    3556:	00 40 06    	retfie    

00003558 <__T3Interrupt>:
    3558:	36 00 f8    	push      0x36
    355a:	80 9f be    	mov.d     w0, [w15++]
    355c:	82 9f be    	mov.d     w2, [w15++]
    355e:	84 9f be    	mov.d     w4, [w15++]
    3560:	86 9f be    	mov.d     w6, [w15++]
    3562:	32 00 f8    	push      0x32
    3564:	00 20 20    	mov.w     #0x200, w0
    3566:	90 01 88    	mov.w     w0, 0x32
    3568:	00 00 fa    	lnk       #0x0

0000356a <.LSM19>:
    356a:	60 ba 20    	mov.w     #0xba6, w0
    356c:	a6 ff 07    	rcall     0x34ba <_timer_serviceInterrupt>

0000356e <.LSM20>:
    356e:	00 80 fa    	ulnk      
    3570:	32 00 f9    	pop       0x32
    3572:	4f 03 be    	mov.d     [--w15], w6
    3574:	4f 02 be    	mov.d     [--w15], w4
    3576:	4f 01 be    	mov.d     [--w15], w2
    3578:	4f 00 be    	mov.d     [--w15], w0
    357a:	36 00 f9    	pop       0x36
    357c:	00 40 06    	retfie    

0000357e <__T4Interrupt>:
    357e:	36 00 f8    	push      0x36
    3580:	80 9f be    	mov.d     w0, [w15++]
    3582:	82 9f be    	mov.d     w2, [w15++]
    3584:	84 9f be    	mov.d     w4, [w15++]
    3586:	86 9f be    	mov.d     w6, [w15++]
    3588:	32 00 f8    	push      0x32
    358a:	00 20 20    	mov.w     #0x200, w0
    358c:	90 01 88    	mov.w     w0, 0x32
    358e:	00 00 fa    	lnk       #0x0

00003590 <.LSM22>:
    3590:	c0 bb 20    	mov.w     #0xbbc, w0
    3592:	93 ff 07    	rcall     0x34ba <_timer_serviceInterrupt>

00003594 <.LSM23>:
    3594:	00 80 fa    	ulnk      
    3596:	32 00 f9    	pop       0x32
    3598:	4f 03 be    	mov.d     [--w15], w6
    359a:	4f 02 be    	mov.d     [--w15], w4
    359c:	4f 01 be    	mov.d     [--w15], w2
    359e:	4f 00 be    	mov.d     [--w15], w0
    35a0:	36 00 f9    	pop       0x36
    35a2:	00 40 06    	retfie    

000035a4 <__T5Interrupt>:
    35a4:	36 00 f8    	push      0x36
    35a6:	80 9f be    	mov.d     w0, [w15++]
    35a8:	82 9f be    	mov.d     w2, [w15++]
    35aa:	84 9f be    	mov.d     w4, [w15++]
    35ac:	86 9f be    	mov.d     w6, [w15++]
    35ae:	32 00 f8    	push      0x32
    35b0:	00 20 20    	mov.w     #0x200, w0
    35b2:	90 01 88    	mov.w     w0, 0x32
    35b4:	00 00 fa    	lnk       #0x0

000035b6 <.LSM25>:
    35b6:	20 bd 20    	mov.w     #0xbd2, w0
    35b8:	80 ff 07    	rcall     0x34ba <_timer_serviceInterrupt>

000035ba <.LSM26>:
    35ba:	00 80 fa    	ulnk      
    35bc:	32 00 f9    	pop       0x32
    35be:	4f 03 be    	mov.d     [--w15], w6
    35c0:	4f 02 be    	mov.d     [--w15], w4
    35c2:	4f 01 be    	mov.d     [--w15], w2
    35c4:	4f 00 be    	mov.d     [--w15], w0
    35c6:	36 00 f9    	pop       0x36
    35c8:	00 40 06    	retfie    

000035ca <_init_timer>:
    35ca:	00 00 fa    	lnk       #0x0

000035cc <.LSM28>:
    35cc:	b0 00 20    	mov.w     #0xb, w0
    35ce:	80 1f 78    	mov.w     w0, [w15++]
    35d0:	47 00 20    	mov.w     #0x4, w7
    35d2:	36 c0 b3    	mov.b     #0x3, w6
    35d4:	45 09 20    	mov.w     #0x94, w5
    35d6:	44 08 20    	mov.w     #0x84, w4
    35d8:	03 10 20    	mov.w     #0x100, w3
    35da:	22 10 20    	mov.w     #0x102, w2
    35dc:	41 10 20    	mov.w     #0x104, w1
    35de:	a0 b7 20    	mov.w     #0xb7a, w0
    35e0:	33 00 07    	rcall     0x3648 <_timer_init>
    35e2:	8f 87 e9    	dec2.w    w15, w15

000035e4 <.LSM29>:
    35e4:	c0 00 20    	mov.w     #0xc, w0
    35e6:	80 1f 78    	mov.w     w0, [w15++]
    35e8:	80 03 eb    	clr.w     w7
    35ea:	76 c0 b3    	mov.b     #0x7, w6
    35ec:	45 09 20    	mov.w     #0x94, w5
    35ee:	44 08 20    	mov.w     #0x84, w4
    35f0:	63 10 20    	mov.w     #0x106, w3
    35f2:	c2 10 20    	mov.w     #0x10c, w2
    35f4:	01 11 20    	mov.w     #0x110, w1
    35f6:	00 b9 20    	mov.w     #0xb90, w0
    35f8:	27 00 07    	rcall     0x3648 <_timer_init>
    35fa:	8f 87 e9    	dec2.w    w15, w15

000035fc <.LSM30>:
    35fc:	d0 00 20    	mov.w     #0xd, w0
    35fe:	80 1f 78    	mov.w     w0, [w15++]
    3600:	17 00 20    	mov.w     #0x1, w7
    3602:	86 c0 b3    	mov.b     #0x8, w6
    3604:	45 09 20    	mov.w     #0x94, w5
    3606:	44 08 20    	mov.w     #0x84, w4
    3608:	a3 10 20    	mov.w     #0x10a, w3
    360a:	e2 10 20    	mov.w     #0x10e, w2
    360c:	21 11 20    	mov.w     #0x112, w1
    360e:	60 ba 20    	mov.w     #0xba6, w0
    3610:	1b 00 07    	rcall     0x3648 <_timer_init>
    3612:	8f 87 e9    	dec2.w    w15, w15

00003614 <.LSM31>:
    3614:	e0 00 20    	mov.w     #0xe, w0
    3616:	80 1f 78    	mov.w     w0, [w15++]
    3618:	27 00 20    	mov.w     #0x2, w7
    361a:	b6 c0 b3    	mov.b     #0xb, w6
    361c:	65 09 20    	mov.w     #0x96, w5
    361e:	64 08 20    	mov.w     #0x86, w4
    3620:	43 11 20    	mov.w     #0x114, w3
    3622:	a2 11 20    	mov.w     #0x11a, w2
    3624:	e1 11 20    	mov.w     #0x11e, w1
    3626:	c0 bb 20    	mov.w     #0xbbc, w0
    3628:	0f 00 07    	rcall     0x3648 <_timer_init>
    362a:	8f 87 e9    	dec2.w    w15, w15

0000362c <.LSM32>:
    362c:	f0 00 20    	mov.w     #0xf, w0
    362e:	80 1f 78    	mov.w     w0, [w15++]
    3630:	37 00 20    	mov.w     #0x3, w7
    3632:	c6 c0 b3    	mov.b     #0xc, w6
    3634:	65 09 20    	mov.w     #0x96, w5
    3636:	64 08 20    	mov.w     #0x86, w4
    3638:	83 11 20    	mov.w     #0x118, w3
    363a:	c2 11 20    	mov.w     #0x11c, w2
    363c:	01 12 20    	mov.w     #0x120, w1
    363e:	20 bd 20    	mov.w     #0xbd2, w0
    3640:	03 00 07    	rcall     0x3648 <_timer_init>
    3642:	8f 87 e9    	dec2.w    w15, w15

00003644 <.LSM33>:
    3644:	00 80 fa    	ulnk      
    3646:	00 00 06    	return    

00003648 <_timer_init>:
    3648:	10 00 fa    	lnk       #0x10
    364a:	00 0f 78    	mov.w     w0, [w14]
    364c:	11 07 98    	mov.w     w1, [w14+2]
    364e:	22 07 98    	mov.w     w2, [w14+4]
    3650:	33 07 98    	mov.w     w3, [w14+6]
    3652:	44 07 98    	mov.w     w4, [w14+8]
    3654:	55 07 98    	mov.w     w5, [w14+10]
    3656:	46 4f 98    	mov.b     w6, [w14+12]
    3658:	77 07 98    	mov.w     w7, [w14+14]

0000365a <.LSM35>:
    365a:	1e 00 78    	mov.w     [w14], w0
    365c:	9e 00 90    	mov.w     [w14+2], w1
    365e:	01 08 78    	mov.w     w1, [w0]

00003660 <.LSM36>:
    3660:	1e 00 78    	mov.w     [w14], w0
    3662:	ae 00 90    	mov.w     [w14+4], w1
    3664:	11 00 98    	mov.w     w1, [w0+2]

00003666 <.LSM37>:
    3666:	1e 00 78    	mov.w     [w14], w0
    3668:	be 00 90    	mov.w     [w14+6], w1
    366a:	21 00 98    	mov.w     w1, [w0+4]

0000366c <.LSM38>:
    366c:	1e 00 78    	mov.w     [w14], w0
    366e:	ce 00 90    	mov.w     [w14+8], w1
    3670:	31 00 98    	mov.w     w1, [w0+6]

00003672 <.LSM39>:
    3672:	1e 00 78    	mov.w     [w14], w0
    3674:	de 00 90    	mov.w     [w14+10], w1
    3676:	41 00 98    	mov.w     w1, [w0+8]

00003678 <.LSM40>:
    3678:	1e 00 78    	mov.w     [w14], w0
    367a:	ce 48 90    	mov.b     [w14+12], w1
    367c:	21 48 98    	mov.b     w1, [w0+10]

0000367e <.LSM41>:
    367e:	1e 00 78    	mov.w     [w14], w0
    3680:	fe 00 90    	mov.w     [w14+14], w1
    3682:	61 00 98    	mov.w     w1, [w0+12]

00003684 <.LSM42>:
    3684:	1e 00 78    	mov.w     [w14], w0
    3686:	ce b8 97    	mov.w     [w14-8], w1
    3688:	71 00 98    	mov.w     w1, [w0+14]

0000368a <.LSM43>:
    368a:	1e 00 78    	mov.w     [w14], w0
    368c:	80 00 eb    	clr.w     w1
    368e:	01 08 98    	mov.w     w1, [w0+16]

00003690 <.LSM44>:
    3690:	1e 00 78    	mov.w     [w14], w0
    3692:	80 00 eb    	clr.w     w1
    3694:	11 08 98    	mov.w     w1, [w0+18]

00003696 <.LSM45>:
    3696:	1e 00 78    	mov.w     [w14], w0
    3698:	80 00 eb    	clr.w     w1
    369a:	21 08 98    	mov.w     w1, [w0+20]

0000369c <.LSM46>:
    369c:	00 80 fa    	ulnk      
    369e:	00 00 06    	return    

000036a0 <_timer_setPeriod>:
    36a0:	06 00 fa    	lnk       #0x6
    36a2:	88 1f 78    	mov.w     w8, [w15++]
    36a4:	00 0f 78    	mov.w     w0, [w14]
    36a6:	12 07 98    	mov.w     w2, [w14+2]
    36a8:	23 07 98    	mov.w     w3, [w14+4]

000036aa <.LSM48>:
    36aa:	18 c0 b3    	mov.b     #0x1, w8
    36ac:	d2 7b 23    	mov.w     #0x37bd, w2
    36ae:	63 f8 23    	mov.w     #0x3f86, w3
    36b0:	1e 00 90    	mov.w     [w14+2], w0
    36b2:	ae 00 90    	mov.w     [w14+4], w1
    36b4:	68 ee 07    	rcall     0x1386 <___gesf2>
    36b6:	e0 0f 50    	sub.w     w0, #0x0, [w15]
    36b8:	01 00 3c    	bra       GT, 0x36bc <.L14>
    36ba:	00 44 eb    	clr.b     w8

000036bc <.L14>:
    36bc:	e0 4f 54    	sub.b     w8, #0x0, [w15]
    36be:	69 00 3a    	bra       NZ, 0x3792 <.L23>

000036c0 <.LSM49>:
    36c0:	18 c0 b3    	mov.b     #0x1, w8
    36c2:	d2 7b 23    	mov.w     #0x37bd, w2
    36c4:	63 e8 23    	mov.w     #0x3e86, w3
    36c6:	1e 00 90    	mov.w     [w14+2], w0
    36c8:	ae 00 90    	mov.w     [w14+4], w1
    36ca:	5d ee 07    	rcall     0x1386 <___gesf2>
    36cc:	e0 0f 50    	sub.w     w0, #0x0, [w15]
    36ce:	01 00 3c    	bra       GT, 0x36d2 <.L17>
    36d0:	00 44 eb    	clr.b     w8

000036d2 <.L17>:
    36d2:	e0 4f 54    	sub.b     w8, #0x0, [w15]
    36d4:	12 00 32    	bra       Z, 0x36fa <.L18>

000036d6 <.LSM50>:
    36d6:	1e 00 78    	mov.w     [w14], w0
    36d8:	c4 00 07    	rcall     0x3862 <_timer_stop>

000036da <.LSM51>:
    36da:	1e 00 78    	mov.w     [w14], w0
    36dc:	10 00 78    	mov.w     [w0], w0
    36de:	01 03 20    	mov.w     #0x30, w1
    36e0:	01 08 78    	mov.w     w1, [w0]

000036e2 <.LSM52>:
    36e2:	1e 00 78    	mov.w     [w14], w0
    36e4:	10 04 90    	mov.w     [w0+2], w8
    36e6:	02 40 22    	mov.w     #0x2400, w2
    36e8:	43 77 24    	mov.w     #0x4774, w3
    36ea:	1e 00 90    	mov.w     [w14+2], w0
    36ec:	ae 00 90    	mov.w     [w14+4], w1
    36ee:	bd ee 07    	rcall     0x146a <___mulsf3>
    36f0:	4c ee 07    	rcall     0x138a <___fixunssfsi>
    36f2:	00 00 78    	mov.w     w0, w0
    36f4:	00 00 e9    	dec.w     w0, w0
    36f6:	00 0c 78    	mov.w     w0, [w8]
    36f8:	4d 00 37    	bra       0x3794 <.L13>

000036fa <.L18>:
    36fa:	18 c0 b3    	mov.b     #0x1, w8
    36fc:	d2 7b 23    	mov.w     #0x37bd, w2
    36fe:	63 d0 23    	mov.w     #0x3d06, w3
    3700:	1e 00 90    	mov.w     [w14+2], w0
    3702:	ae 00 90    	mov.w     [w14+4], w1
    3704:	40 ee 07    	rcall     0x1386 <___gesf2>
    3706:	e0 0f 50    	sub.w     w0, #0x0, [w15]
    3708:	01 00 3c    	bra       GT, 0x370c <.L19>
    370a:	00 44 eb    	clr.b     w8

0000370c <.L19>:
    370c:	e0 4f 54    	sub.b     w8, #0x0, [w15]
    370e:	12 00 32    	bra       Z, 0x3734 <.L20>

00003710 <.LSM54>:
    3710:	1e 00 78    	mov.w     [w14], w0
    3712:	a7 00 07    	rcall     0x3862 <_timer_stop>

00003714 <.LSM55>:
    3714:	1e 00 78    	mov.w     [w14], w0
    3716:	10 00 78    	mov.w     [w0], w0
    3718:	01 02 20    	mov.w     #0x20, w1
    371a:	01 08 78    	mov.w     w1, [w0]

0000371c <.LSM56>:
    371c:	1e 00 78    	mov.w     [w14], w0
    371e:	10 04 90    	mov.w     [w0+2], w8
    3720:	02 40 22    	mov.w     #0x2400, w2
    3722:	43 87 24    	mov.w     #0x4874, w3
    3724:	1e 00 90    	mov.w     [w14+2], w0
    3726:	ae 00 90    	mov.w     [w14+4], w1
    3728:	a0 ee 07    	rcall     0x146a <___mulsf3>
    372a:	2f ee 07    	rcall     0x138a <___fixunssfsi>
    372c:	00 00 78    	mov.w     w0, w0
    372e:	00 00 e9    	dec.w     w0, w0
    3730:	00 0c 78    	mov.w     w0, [w8]
    3732:	30 00 37    	bra       0x3794 <.L13>

00003734 <.L20>:
    3734:	18 c0 b3    	mov.b     #0x1, w8
    3736:	d2 7b 23    	mov.w     #0x37bd, w2
    3738:	63 b8 23    	mov.w     #0x3b86, w3
    373a:	1e 00 90    	mov.w     [w14+2], w0
    373c:	ae 00 90    	mov.w     [w14+4], w1
    373e:	23 ee 07    	rcall     0x1386 <___gesf2>
    3740:	e0 0f 50    	sub.w     w0, #0x0, [w15]
    3742:	01 00 3c    	bra       GT, 0x3746 <.L21>
    3744:	00 44 eb    	clr.b     w8

00003746 <.L21>:
    3746:	e0 4f 54    	sub.b     w8, #0x0, [w15]
    3748:	12 00 32    	bra       Z, 0x376e <.L22>

0000374a <.LSM58>:
    374a:	1e 00 78    	mov.w     [w14], w0
    374c:	8a 00 07    	rcall     0x3862 <_timer_stop>

0000374e <.LSM59>:
    374e:	1e 00 78    	mov.w     [w14], w0
    3750:	10 00 78    	mov.w     [w0], w0
    3752:	01 01 20    	mov.w     #0x10, w1
    3754:	01 08 78    	mov.w     w1, [w0]

00003756 <.LSM60>:
    3756:	1e 00 78    	mov.w     [w14], w0
    3758:	10 04 90    	mov.w     [w0+2], w8
    375a:	02 40 22    	mov.w     #0x2400, w2
    375c:	43 9f 24    	mov.w     #0x49f4, w3
    375e:	1e 00 90    	mov.w     [w14+2], w0
    3760:	ae 00 90    	mov.w     [w14+4], w1
    3762:	83 ee 07    	rcall     0x146a <___mulsf3>
    3764:	12 ee 07    	rcall     0x138a <___fixunssfsi>
    3766:	00 00 78    	mov.w     w0, w0
    3768:	00 00 e9    	dec.w     w0, w0
    376a:	00 0c 78    	mov.w     w0, [w8]
    376c:	13 00 37    	bra       0x3794 <.L13>

0000376e <.L22>:
    376e:	1e 00 78    	mov.w     [w14], w0
    3770:	78 00 07    	rcall     0x3862 <_timer_stop>

00003772 <.LSM62>:
    3772:	1e 00 78    	mov.w     [w14], w0
    3774:	10 00 78    	mov.w     [w0], w0
    3776:	80 00 eb    	clr.w     w1
    3778:	01 08 78    	mov.w     w1, [w0]

0000377a <.LSM63>:
    377a:	1e 00 78    	mov.w     [w14], w0
    377c:	10 04 90    	mov.w     [w0+2], w8
    377e:	02 40 22    	mov.w     #0x2400, w2
    3780:	43 b7 24    	mov.w     #0x4b74, w3
    3782:	1e 00 90    	mov.w     [w14+2], w0
    3784:	ae 00 90    	mov.w     [w14+4], w1
    3786:	71 ee 07    	rcall     0x146a <___mulsf3>
    3788:	00 ee 07    	rcall     0x138a <___fixunssfsi>
    378a:	00 00 78    	mov.w     w0, w0
    378c:	00 00 e9    	dec.w     w0, w0
    378e:	00 0c 78    	mov.w     w0, [w8]
    3790:	01 00 37    	bra       0x3794 <.L13>

00003792 <.L23>:
    3792:	00 00 00    	nop       

00003794 <.L13>:
    3794:	4f 04 78    	mov.w     [--w15], w8
    3796:	00 80 fa    	ulnk      
    3798:	00 00 06    	return    

0000379a <_timer_period>:
    379a:	04 00 fa    	lnk       #0x4
    379c:	88 9f be    	mov.d     w8, [w15++]
    379e:	10 07 98    	mov.w     w0, [w14+2]

000037a0 <.LSM67>:
    37a0:	1e 00 90    	mov.w     [w14+2], w0
    37a2:	10 00 78    	mov.w     [w0], w0
    37a4:	90 00 78    	mov.w     [w0], w1
    37a6:	00 03 20    	mov.w     #0x30, w0
    37a8:	00 80 60    	and.w     w1, w0, w0
    37aa:	44 00 de    	lsr.w     w0, #0x4, w0
    37ac:	00 0f 78    	mov.w     w0, [w14]

000037ae <.LSM68>:
    37ae:	1e 00 78    	mov.w     [w14], w0
    37b0:	c2 00 dd    	sl.w      w0, #0x2, w1
    37b2:	40 c4 20    	mov.w     #0xc44, w0
    37b4:	00 80 40    	add.w     w1, w0, w0
    37b6:	10 04 be    	mov.d     [w0], w8
    37b8:	1e 00 90    	mov.w     [w14+2], w0
    37ba:	10 00 90    	mov.w     [w0+2], w0
    37bc:	10 00 78    	mov.w     [w0], w0
    37be:	01 00 20    	mov.w     #0x0, w1
    37c0:	ff ed 07    	rcall     0x13c0 <___floatunsisf>
    37c2:	02 00 20    	mov.w     #0x0, w2
    37c4:	03 f8 23    	mov.w     #0x3f80, w3
    37c6:	3e ed 07    	rcall     0x1244 <___addsf3>
    37c8:	00 01 be    	mov.d     w0, w2
    37ca:	08 00 be    	mov.d     w8, w0
    37cc:	4e ee 07    	rcall     0x146a <___mulsf3>

000037ce <.LSM69>:
    37ce:	4f 04 be    	mov.d     [--w15], w8
    37d0:	00 80 fa    	ulnk      
    37d2:	00 00 06    	return    

000037d4 <_timer_setFreq>:
    37d4:	06 00 fa    	lnk       #0x6
    37d6:	00 0f 78    	mov.w     w0, [w14]
    37d8:	12 07 98    	mov.w     w2, [w14+2]
    37da:	23 07 98    	mov.w     w3, [w14+4]

000037dc <.LSM71>:
    37dc:	1e 01 90    	mov.w     [w14+2], w2
    37de:	ae 01 90    	mov.w     [w14+4], w3
    37e0:	00 00 20    	mov.w     #0x0, w0
    37e2:	01 f8 23    	mov.w     #0x3f80, w1
    37e4:	8c ed 07    	rcall     0x12fe <___divsf3>
    37e6:	00 01 be    	mov.d     w0, w2
    37e8:	1e 00 78    	mov.w     [w14], w0
    37ea:	5a ff 07    	rcall     0x36a0 <_timer_setPeriod>

000037ec <.LSM72>:
    37ec:	00 80 fa    	ulnk      
    37ee:	00 00 06    	return    

000037f0 <_timer_freq>:
    37f0:	02 00 fa    	lnk       #0x2
    37f2:	00 0f 78    	mov.w     w0, [w14]

000037f4 <.LSM74>:
    37f4:	1e 00 78    	mov.w     [w14], w0
    37f6:	d1 ff 07    	rcall     0x379a <_timer_period>
    37f8:	00 01 be    	mov.d     w0, w2
    37fa:	00 00 20    	mov.w     #0x0, w0
    37fc:	01 f8 23    	mov.w     #0x3f80, w1
    37fe:	7f ed 07    	rcall     0x12fe <___divsf3>

00003800 <.LSM75>:
    3800:	00 80 fa    	ulnk      
    3802:	00 00 06    	return    

00003804 <_timer_time>:
    3804:	04 00 fa    	lnk       #0x4
    3806:	88 9f be    	mov.d     w8, [w15++]
    3808:	10 07 98    	mov.w     w0, [w14+2]

0000380a <.LSM77>:
    380a:	1e 00 90    	mov.w     [w14+2], w0
    380c:	10 00 78    	mov.w     [w0], w0
    380e:	90 00 78    	mov.w     [w0], w1
    3810:	00 03 20    	mov.w     #0x30, w0
    3812:	00 80 60    	and.w     w1, w0, w0
    3814:	44 00 de    	lsr.w     w0, #0x4, w0
    3816:	00 0f 78    	mov.w     w0, [w14]

00003818 <.LSM78>:
    3818:	1e 00 78    	mov.w     [w14], w0
    381a:	c2 00 dd    	sl.w      w0, #0x2, w1
    381c:	40 c4 20    	mov.w     #0xc44, w0
    381e:	00 80 40    	add.w     w1, w0, w0
    3820:	10 04 be    	mov.d     [w0], w8
    3822:	1e 00 90    	mov.w     [w14+2], w0
    3824:	10 00 90    	mov.w     [w0+2], w0
    3826:	10 00 78    	mov.w     [w0], w0
    3828:	01 00 20    	mov.w     #0x0, w1
    382a:	ca ed 07    	rcall     0x13c0 <___floatunsisf>
    382c:	02 00 20    	mov.w     #0x0, w2
    382e:	03 f8 23    	mov.w     #0x3f80, w3
    3830:	09 ed 07    	rcall     0x1244 <___addsf3>
    3832:	00 01 be    	mov.d     w0, w2
    3834:	08 00 be    	mov.d     w8, w0
    3836:	19 ee 07    	rcall     0x146a <___mulsf3>

00003838 <.LSM79>:
    3838:	4f 04 be    	mov.d     [--w15], w8
    383a:	00 80 fa    	ulnk      
    383c:	00 00 06    	return    

0000383e <_timer_start>:
    383e:	02 00 fa    	lnk       #0x2
    3840:	00 0f 78    	mov.w     w0, [w14]

00003842 <.LSM81>:
    3842:	1e 00 78    	mov.w     [w14], w0
    3844:	2a 00 07    	rcall     0x389a <_timer_lower>

00003846 <.LSM82>:
    3846:	1e 00 78    	mov.w     [w14], w0
    3848:	20 00 90    	mov.w     [w0+4], w0
    384a:	80 00 eb    	clr.w     w1
    384c:	01 08 78    	mov.w     w1, [w0]

0000384e <.LSM83>:
    384e:	1e 00 78    	mov.w     [w14], w0
    3850:	10 00 78    	mov.w     [w0], w0
    3852:	9e 00 78    	mov.w     [w14], w1
    3854:	91 00 78    	mov.w     [w1], w1
    3856:	11 01 78    	mov.w     [w1], w2
    3858:	01 00 28    	mov.w     #0x8000, w1
    385a:	81 00 71    	ior.w     w2, w1, w1
    385c:	01 08 78    	mov.w     w1, [w0]

0000385e <.LSM84>:
    385e:	00 80 fa    	ulnk      
    3860:	00 00 06    	return    

00003862 <_timer_stop>:
    3862:	02 00 fa    	lnk       #0x2
    3864:	00 0f 78    	mov.w     w0, [w14]

00003866 <.LSM86>:
    3866:	1e 00 78    	mov.w     [w14], w0
    3868:	10 00 78    	mov.w     [w0], w0
    386a:	9e 00 78    	mov.w     [w14], w1
    386c:	91 00 78    	mov.w     [w1], w1
    386e:	11 01 78    	mov.w     [w1], w2
    3870:	f1 ff 27    	mov.w     #0x7fff, w1
    3872:	81 00 61    	and.w     w2, w1, w1
    3874:	01 08 78    	mov.w     w1, [w0]

00003876 <.LSM87>:
    3876:	00 80 fa    	ulnk      
    3878:	00 00 06    	return    

0000387a <_timer_flag>:
    387a:	02 00 fa    	lnk       #0x2
    387c:	00 0f 78    	mov.w     w0, [w14]

0000387e <.LSM89>:
    387e:	1e 00 78    	mov.w     [w14], w0
    3880:	30 00 90    	mov.w     [w0+6], w0
    3882:	90 00 78    	mov.w     [w0], w1
    3884:	1e 00 78    	mov.w     [w14], w0
    3886:	20 48 90    	mov.b     [w0+10], w0
    3888:	00 80 fb    	ze        w0, w0
    388a:	12 00 20    	mov.w     #0x1, w2
    388c:	00 10 dd    	sl.w      w2, w0, w0
    388e:	80 80 60    	and.w     w1, w0, w1
    3890:	01 00 ea    	neg.w     w1, w0
    3892:	01 00 70    	ior.w     w0, w1, w0
    3894:	4f 00 de    	lsr.w     w0, #0xf, w0

00003896 <.LSM90>:
    3896:	00 80 fa    	ulnk      
    3898:	00 00 06    	return    

0000389a <_timer_lower>:
    389a:	02 00 fa    	lnk       #0x2
    389c:	00 0f 78    	mov.w     w0, [w14]

0000389e <.LSM92>:
    389e:	1e 00 78    	mov.w     [w14], w0
    38a0:	b0 00 90    	mov.w     [w0+6], w1
    38a2:	1e 00 78    	mov.w     [w14], w0
    38a4:	30 00 90    	mov.w     [w0+6], w0
    38a6:	10 01 78    	mov.w     [w0], w2
    38a8:	1e 00 78    	mov.w     [w14], w0
    38aa:	20 48 90    	mov.b     [w0+10], w0
    38ac:	00 80 fb    	ze        w0, w0
    38ae:	13 00 20    	mov.w     #0x1, w3
    38b0:	00 18 dd    	sl.w      w3, w0, w0
    38b2:	00 80 ea    	com.w     w0, w0
    38b4:	00 00 61    	and.w     w2, w0, w0
    38b6:	80 08 78    	mov.w     w0, [w1]

000038b8 <.LSM93>:
    38b8:	00 80 fa    	ulnk      
    38ba:	00 00 06    	return    

000038bc <_timer_read>:
    38bc:	02 00 fa    	lnk       #0x2
    38be:	00 0f 78    	mov.w     w0, [w14]

000038c0 <.LSM95>:
    38c0:	1e 00 78    	mov.w     [w14], w0
    38c2:	20 00 90    	mov.w     [w0+4], w0
    38c4:	10 00 78    	mov.w     [w0], w0

000038c6 <.LSM96>:
    38c6:	00 80 fa    	ulnk      
    38c8:	00 00 06    	return    

000038ca <_timer_enableInterrupt>:
    38ca:	02 00 fa    	lnk       #0x2
    38cc:	00 0f 78    	mov.w     w0, [w14]

000038ce <.LSM98>:
    38ce:	1e 00 78    	mov.w     [w14], w0
    38d0:	c0 00 90    	mov.w     [w0+8], w1
    38d2:	1e 00 78    	mov.w     [w14], w0
    38d4:	40 00 90    	mov.w     [w0+8], w0
    38d6:	10 01 78    	mov.w     [w0], w2
    38d8:	1e 00 78    	mov.w     [w14], w0
    38da:	20 48 90    	mov.b     [w0+10], w0
    38dc:	00 80 fb    	ze        w0, w0
    38de:	13 00 20    	mov.w     #0x1, w3
    38e0:	00 18 dd    	sl.w      w3, w0, w0
    38e2:	00 00 71    	ior.w     w2, w0, w0
    38e4:	80 08 78    	mov.w     w0, [w1]

000038e6 <.LSM99>:
    38e6:	00 80 fa    	ulnk      
    38e8:	00 00 06    	return    

000038ea <_timer_disableInterrupt>:
    38ea:	02 00 fa    	lnk       #0x2
    38ec:	00 0f 78    	mov.w     w0, [w14]

000038ee <.LSM101>:
    38ee:	1e 00 78    	mov.w     [w14], w0
    38f0:	c0 00 90    	mov.w     [w0+8], w1
    38f2:	1e 00 78    	mov.w     [w14], w0
    38f4:	40 00 90    	mov.w     [w0+8], w0
    38f6:	10 01 78    	mov.w     [w0], w2
    38f8:	1e 00 78    	mov.w     [w14], w0
    38fa:	20 48 90    	mov.b     [w0+10], w0
    38fc:	00 80 fb    	ze        w0, w0
    38fe:	13 00 20    	mov.w     #0x1, w3
    3900:	00 18 dd    	sl.w      w3, w0, w0
    3902:	00 80 ea    	com.w     w0, w0
    3904:	00 00 61    	and.w     w2, w0, w0
    3906:	80 08 78    	mov.w     w0, [w1]

00003908 <.LSM102>:
    3908:	00 80 fa    	ulnk      
    390a:	00 00 06    	return    

0000390c <_timer_every>:
    390c:	08 00 fa    	lnk       #0x8
    390e:	00 0f 78    	mov.w     w0, [w14]
    3910:	12 07 98    	mov.w     w2, [w14+2]
    3912:	23 07 98    	mov.w     w3, [w14+4]
    3914:	31 07 98    	mov.w     w1, [w14+6]

00003916 <.LSM104>:
    3916:	1e 00 78    	mov.w     [w14], w0
    3918:	e8 ff 07    	rcall     0x38ea <_timer_disableInterrupt>

0000391a <.LSM105>:
    391a:	1e 01 90    	mov.w     [w14+2], w2
    391c:	ae 01 90    	mov.w     [w14+4], w3
    391e:	1e 00 78    	mov.w     [w14], w0
    3920:	bf fe 07    	rcall     0x36a0 <_timer_setPeriod>

00003922 <.LSM106>:
    3922:	1e 00 78    	mov.w     [w14], w0
    3924:	80 00 eb    	clr.w     w1
    3926:	01 08 98    	mov.w     w1, [w0+16]

00003928 <.LSM107>:
    3928:	1e 00 78    	mov.w     [w14], w0
    392a:	be 00 90    	mov.w     [w14+6], w1
    392c:	11 08 98    	mov.w     w1, [w0+18]

0000392e <.LSM108>:
    392e:	1e 00 78    	mov.w     [w14], w0
    3930:	80 00 eb    	clr.w     w1
    3932:	21 08 98    	mov.w     w1, [w0+20]

00003934 <.LSM109>:
    3934:	1e 00 78    	mov.w     [w14], w0
    3936:	c9 ff 07    	rcall     0x38ca <_timer_enableInterrupt>

00003938 <.LSM110>:
    3938:	1e 00 78    	mov.w     [w14], w0
    393a:	81 ff 07    	rcall     0x383e <_timer_start>

0000393c <.LSM111>:
    393c:	00 80 fa    	ulnk      
    393e:	00 00 06    	return    

00003940 <_timer_after>:
    3940:	0a 00 fa    	lnk       #0xa
    3942:	00 0f 78    	mov.w     w0, [w14]
    3944:	12 07 98    	mov.w     w2, [w14+2]
    3946:	23 07 98    	mov.w     w3, [w14+4]
    3948:	31 07 98    	mov.w     w1, [w14+6]
    394a:	44 07 98    	mov.w     w4, [w14+8]

0000394c <.LSM113>:
    394c:	1e 00 78    	mov.w     [w14], w0
    394e:	cd ff 07    	rcall     0x38ea <_timer_disableInterrupt>

00003950 <.LSM114>:
    3950:	1e 01 90    	mov.w     [w14+2], w2
    3952:	ae 01 90    	mov.w     [w14+4], w3
    3954:	1e 00 78    	mov.w     [w14], w0
    3956:	a4 fe 07    	rcall     0x36a0 <_timer_setPeriod>

00003958 <.LSM115>:
    3958:	1e 00 78    	mov.w     [w14], w0
    395a:	be 00 90    	mov.w     [w14+6], w1
    395c:	01 08 98    	mov.w     w1, [w0+16]

0000395e <.LSM116>:
    395e:	1e 00 78    	mov.w     [w14], w0
    3960:	80 00 eb    	clr.w     w1
    3962:	11 08 98    	mov.w     w1, [w0+18]

00003964 <.LSM117>:
    3964:	1e 00 78    	mov.w     [w14], w0
    3966:	ce 00 90    	mov.w     [w14+8], w1
    3968:	21 08 98    	mov.w     w1, [w0+20]

0000396a <.LSM118>:
    396a:	1e 00 78    	mov.w     [w14], w0
    396c:	ae ff 07    	rcall     0x38ca <_timer_enableInterrupt>

0000396e <.LSM119>:
    396e:	1e 00 78    	mov.w     [w14], w0
    3970:	66 ff 07    	rcall     0x383e <_timer_start>

00003972 <.LSM120>:
    3972:	00 80 fa    	ulnk      
    3974:	00 00 06    	return    

00003976 <_timer_cancel>:
    3976:	02 00 fa    	lnk       #0x2
    3978:	00 0f 78    	mov.w     w0, [w14]

0000397a <.LSM122>:
    397a:	1e 00 78    	mov.w     [w14], w0
    397c:	b6 ff 07    	rcall     0x38ea <_timer_disableInterrupt>

0000397e <.LSM123>:
    397e:	1e 00 78    	mov.w     [w14], w0
    3980:	8c ff 07    	rcall     0x389a <_timer_lower>

00003982 <.LSM124>:
    3982:	1e 00 78    	mov.w     [w14], w0
    3984:	6e ff 07    	rcall     0x3862 <_timer_stop>

00003986 <.LSM125>:
    3986:	1e 00 78    	mov.w     [w14], w0
    3988:	80 00 eb    	clr.w     w1
    398a:	01 08 98    	mov.w     w1, [w0+16]

0000398c <.LSM126>:
    398c:	1e 00 78    	mov.w     [w14], w0
    398e:	80 00 eb    	clr.w     w1
    3990:	11 08 98    	mov.w     w1, [w0+18]

00003992 <.LSM127>:
    3992:	1e 00 78    	mov.w     [w14], w0
    3994:	80 00 eb    	clr.w     w1
    3996:	21 08 98    	mov.w     w1, [w0+20]

00003998 <.LSM128>:
    3998:	00 80 fa    	ulnk      
    399a:	00 00 06    	return    

0000399c <___digitalWrite>:
    399c:	04 00 fa    	lnk       #0x4
    399e:	00 0f 78    	mov.w     w0, [w14]
    39a0:	11 07 98    	mov.w     w1, [w14+2]

000039a2 <.LSM1>:
    39a2:	1e 00 90    	mov.w     [w14+2], w0
    39a4:	e0 0f 50    	sub.w     w0, #0x0, [w15]
    39a6:	0d 00 32    	bra       Z, 0x39c2 <.L2>

000039a8 <.LSM2>:
    39a8:	1e 00 78    	mov.w     [w14], w0
    39aa:	90 00 78    	mov.w     [w0], w1
    39ac:	1e 00 78    	mov.w     [w14], w0
    39ae:	10 00 78    	mov.w     [w0], w0
    39b0:	10 01 78    	mov.w     [w0], w2
    39b2:	1e 00 78    	mov.w     [w14], w0
    39b4:	60 40 90    	mov.b     [w0+6], w0
    39b6:	00 80 fb    	ze        w0, w0
    39b8:	13 00 20    	mov.w     #0x1, w3
    39ba:	00 18 dd    	sl.w      w3, w0, w0
    39bc:	00 00 71    	ior.w     w2, w0, w0
    39be:	80 08 78    	mov.w     w0, [w1]
    39c0:	0d 00 37    	bra       0x39dc <.L1>

000039c2 <.L2>:
    39c2:	1e 00 78    	mov.w     [w14], w0
    39c4:	90 00 78    	mov.w     [w0], w1
    39c6:	1e 00 78    	mov.w     [w14], w0
    39c8:	10 00 78    	mov.w     [w0], w0
    39ca:	10 01 78    	mov.w     [w0], w2
    39cc:	1e 00 78    	mov.w     [w14], w0
    39ce:	60 40 90    	mov.b     [w0+6], w0
    39d0:	00 80 fb    	ze        w0, w0
    39d2:	13 00 20    	mov.w     #0x1, w3
    39d4:	00 18 dd    	sl.w      w3, w0, w0
    39d6:	00 80 ea    	com.w     w0, w0
    39d8:	00 00 61    	and.w     w2, w0, w0
    39da:	80 08 78    	mov.w     w0, [w1]

000039dc <.L1>:
    39dc:	00 80 fa    	ulnk      
    39de:	00 00 06    	return    

000039e0 <___digitalRead>:
    39e0:	02 00 fa    	lnk       #0x2
    39e2:	00 0f 78    	mov.w     w0, [w14]

000039e4 <.LSM6>:
    39e4:	1e 00 78    	mov.w     [w14], w0
    39e6:	10 00 78    	mov.w     [w0], w0
    39e8:	90 00 78    	mov.w     [w0], w1
    39ea:	1e 00 78    	mov.w     [w14], w0
    39ec:	60 40 90    	mov.b     [w0+6], w0
    39ee:	00 80 fb    	ze        w0, w0
    39f0:	12 00 20    	mov.w     #0x1, w2
    39f2:	00 10 dd    	sl.w      w2, w0, w0
    39f4:	80 80 60    	and.w     w1, w0, w1
    39f6:	01 00 ea    	neg.w     w1, w0
    39f8:	01 00 70    	ior.w     w0, w1, w0
    39fa:	4f 00 de    	lsr.w     w0, #0xf, w0

000039fc <.LSM7>:
    39fc:	00 80 fa    	ulnk      
    39fe:	00 00 06    	return    

00003a00 <___analogRead>:
    3a00:	02 00 fa    	lnk       #0x2
    3a02:	00 0f 78    	mov.w     w0, [w14]

00003a04 <.LSM9>:
    3a04:	1e 00 78    	mov.w     [w14], w0
    3a06:	40 00 90    	mov.w     [w0+8], w0
    3a08:	40 19 88    	mov.w     w0, 0x328

00003a0a <.LSM10>:
    3a0a:	20 23 a8    	bset.b    0x320, #0x1

00003a0c <.LSM11>:
    3a0c:	00 00 00    	nop       

00003a0e <.L6>:
    3a0e:	00 19 80    	mov.w     0x320, w0
    3a10:	61 00 60    	and.w     w0, #0x1, w0
    3a12:	e0 0f 50    	sub.w     w0, #0x0, [w15]
    3a14:	fc ff 32    	bra       Z, 0x3a0e <.L6>

00003a16 <.LSM12>:
    3a16:	00 18 80    	mov.w     0x300, w0

00003a18 <.LSM13>:
    3a18:	00 80 fa    	ulnk      
    3a1a:	00 00 06    	return    

00003a1c <_init_pin>:
    3a1c:	02 00 fa    	lnk       #0x2

00003a1e <.LSM15>:
    3a1e:	40 6d 20    	mov.w     #0x6d4, w0
    3a20:	80 1f 78    	mov.w     w0, [w15++]
    3a22:	47 01 20    	mov.w     #0x14, w7
    3a24:	00 43 eb    	clr.b     w6
    3a26:	80 82 eb    	setm.w    w5
    3a28:	54 c0 b3    	mov.b     #0x5, w4
    3a2a:	80 01 eb    	clr.w     w3
    3a2c:	82 2d 20    	mov.w     #0x2d8, w2
    3a2e:	a1 2d 20    	mov.w     #0x2da, w1
    3a30:	00 80 20    	mov.w     #0x800, w0
    3a32:	0a 01 07    	rcall     0x3c48 <_pin_init>
    3a34:	8f 87 e9    	dec2.w    w15, w15

00003a36 <.LSM16>:
    3a36:	80 6d 20    	mov.w     #0x6d8, w0
    3a38:	80 1f 78    	mov.w     w0, [w15++]
    3a3a:	97 01 20    	mov.w     #0x19, w7
    3a3c:	86 c0 b3    	mov.b     #0x8, w6
    3a3e:	80 82 eb    	setm.w    w5
    3a40:	44 c0 b3    	mov.b     #0x4, w4
    3a42:	80 01 eb    	clr.w     w3
    3a44:	82 2d 20    	mov.w     #0x2d8, w2
    3a46:	a1 2d 20    	mov.w     #0x2da, w1
    3a48:	60 81 20    	mov.w     #0x816, w0
    3a4a:	fe 00 07    	rcall     0x3c48 <_pin_init>
    3a4c:	8f 87 e9    	dec2.w    w15, w15

00003a4e <.LSM17>:
    3a4e:	a0 6c 20    	mov.w     #0x6ca, w0
    3a50:	80 1f 78    	mov.w     w0, [w15++]
    3a52:	a7 00 20    	mov.w     #0xa, w7
    3a54:	00 43 eb    	clr.b     w6
    3a56:	80 82 eb    	setm.w    w5
    3a58:	44 c0 b3    	mov.b     #0x4, w4
    3a5a:	80 01 eb    	clr.w     w3
    3a5c:	82 2e 20    	mov.w     #0x2e8, w2
    3a5e:	a1 2e 20    	mov.w     #0x2ea, w1
    3a60:	c0 82 20    	mov.w     #0x82c, w0
    3a62:	f2 00 07    	rcall     0x3c48 <_pin_init>
    3a64:	8f 87 e9    	dec2.w    w15, w15

00003a66 <.LSM18>:
    3a66:	00 6d 20    	mov.w     #0x6d0, w0
    3a68:	80 1f 78    	mov.w     w0, [w15++]
    3a6a:	17 01 20    	mov.w     #0x11, w7
    3a6c:	86 c0 b3    	mov.b     #0x8, w6
    3a6e:	80 82 eb    	setm.w    w5
    3a70:	54 c0 b3    	mov.b     #0x5, w4
    3a72:	80 01 eb    	clr.w     w3
    3a74:	82 2e 20    	mov.w     #0x2e8, w2
    3a76:	a1 2e 20    	mov.w     #0x2ea, w1
    3a78:	20 84 20    	mov.w     #0x842, w0
    3a7a:	e6 00 07    	rcall     0x3c48 <_pin_init>
    3a7c:	8f 87 e9    	dec2.w    w15, w15

00003a7e <.LSM19>:
    3a7e:	c0 6d 20    	mov.w     #0x6dc, w0
    3a80:	80 1f 78    	mov.w     w0, [w15++]
    3a82:	d7 01 20    	mov.w     #0x1d, w7
    3a84:	86 c0 b3    	mov.b     #0x8, w6
    3a86:	f5 00 20    	mov.w     #0xf, w5
    3a88:	f4 c0 b3    	mov.b     #0xf, w4
    3a8a:	23 4e 20    	mov.w     #0x4e2, w3
    3a8c:	82 2c 20    	mov.w     #0x2c8, w2
    3a8e:	a1 2c 20    	mov.w     #0x2ca, w1
    3a90:	80 85 20    	mov.w     #0x858, w0
    3a92:	da 00 07    	rcall     0x3c48 <_pin_init>
    3a94:	8f 87 e9    	dec2.w    w15, w15

00003a96 <.LSM20>:
    3a96:	00 6d 20    	mov.w     #0x6d0, w0
    3a98:	80 1f 78    	mov.w     w0, [w15++]
    3a9a:	07 01 20    	mov.w     #0x10, w7
    3a9c:	00 43 eb    	clr.b     w6
    3a9e:	80 82 eb    	setm.w    w5
    3aa0:	34 c0 b3    	mov.b     #0x3, w4
    3aa2:	80 01 eb    	clr.w     w3
    3aa4:	82 2e 20    	mov.w     #0x2e8, w2
    3aa6:	a1 2e 20    	mov.w     #0x2ea, w1
    3aa8:	e0 86 20    	mov.w     #0x86e, w0
    3aaa:	ce 00 07    	rcall     0x3c48 <_pin_init>
    3aac:	8f 87 e9    	dec2.w    w15, w15

00003aae <.LSM21>:
    3aae:	20 6c 20    	mov.w     #0x6c2, w0
    3ab0:	80 1f 78    	mov.w     w0, [w15++]
    3ab2:	27 00 20    	mov.w     #0x2, w7
    3ab4:	00 43 eb    	clr.b     w6
    3ab6:	80 82 eb    	setm.w    w5
    3ab8:	84 c0 b3    	mov.b     #0x8, w4
    3aba:	80 01 eb    	clr.w     w3
    3abc:	82 2d 20    	mov.w     #0x2d8, w2
    3abe:	a1 2d 20    	mov.w     #0x2da, w1
    3ac0:	40 88 20    	mov.w     #0x884, w0
    3ac2:	c2 00 07    	rcall     0x3c48 <_pin_init>
    3ac4:	8f 87 e9    	dec2.w    w15, w15

00003ac6 <.LSM22>:
    3ac6:	c0 6c 20    	mov.w     #0x6cc, w0
    3ac8:	80 1f 78    	mov.w     w0, [w15++]
    3aca:	c7 00 20    	mov.w     #0xc, w7
    3acc:	00 43 eb    	clr.b     w6
    3ace:	80 82 eb    	setm.w    w5
    3ad0:	b4 c0 b3    	mov.b     #0xb, w4
    3ad2:	80 01 eb    	clr.w     w3
    3ad4:	82 2d 20    	mov.w     #0x2d8, w2
    3ad6:	a1 2d 20    	mov.w     #0x2da, w1
    3ad8:	a0 89 20    	mov.w     #0x89a, w0
    3ada:	b6 00 07    	rcall     0x3c48 <_pin_init>
    3adc:	8f 87 e9    	dec2.w    w15, w15

00003ade <.LSM23>:
    3ade:	40 6c 20    	mov.w     #0x6c4, w0
    3ae0:	80 1f 78    	mov.w     w0, [w15++]
    3ae2:	47 00 20    	mov.w     #0x4, w7
    3ae4:	00 43 eb    	clr.b     w6
    3ae6:	80 82 eb    	setm.w    w5
    3ae8:	94 c0 b3    	mov.b     #0x9, w4
    3aea:	80 01 eb    	clr.w     w3
    3aec:	82 2d 20    	mov.w     #0x2d8, w2
    3aee:	a1 2d 20    	mov.w     #0x2da, w1
    3af0:	00 8b 20    	mov.w     #0x8b0, w0
    3af2:	aa 00 07    	rcall     0x3c48 <_pin_init>
    3af4:	8f 87 e9    	dec2.w    w15, w15

00003af6 <.LSM24>:
    3af6:	20 6c 20    	mov.w     #0x6c2, w0
    3af8:	80 1f 78    	mov.w     w0, [w15++]
    3afa:	37 00 20    	mov.w     #0x3, w7
    3afc:	86 c0 b3    	mov.b     #0x8, w6
    3afe:	80 82 eb    	setm.w    w5
    3b00:	a4 c0 b3    	mov.b     #0xa, w4
    3b02:	80 01 eb    	clr.w     w3
    3b04:	82 2d 20    	mov.w     #0x2d8, w2
    3b06:	a1 2d 20    	mov.w     #0x2da, w1
    3b08:	60 8c 20    	mov.w     #0x8c6, w0
    3b0a:	9e 00 07    	rcall     0x3c48 <_pin_init>
    3b0c:	8f 87 e9    	dec2.w    w15, w15

00003b0e <.LSM25>:
    3b0e:	a0 6c 20    	mov.w     #0x6ca, w0
    3b10:	80 1f 78    	mov.w     w0, [w15++]
    3b12:	b7 00 20    	mov.w     #0xb, w7
    3b14:	86 c0 b3    	mov.b     #0x8, w6
    3b16:	80 82 eb    	setm.w    w5
    3b18:	00 42 eb    	clr.b     w4
    3b1a:	80 01 eb    	clr.w     w3
    3b1c:	82 2d 20    	mov.w     #0x2d8, w2
    3b1e:	a1 2d 20    	mov.w     #0x2da, w1
    3b20:	c0 8d 20    	mov.w     #0x8dc, w0
    3b22:	92 00 07    	rcall     0x3c48 <_pin_init>
    3b24:	8f 87 e9    	dec2.w    w15, w15

00003b26 <.LSM26>:
    3b26:	80 6d 20    	mov.w     #0x6d8, w0
    3b28:	80 1f 78    	mov.w     w0, [w15++]
    3b2a:	87 01 20    	mov.w     #0x18, w7
    3b2c:	00 43 eb    	clr.b     w6
    3b2e:	80 82 eb    	setm.w    w5
    3b30:	14 c0 b3    	mov.b     #0x1, w4
    3b32:	80 01 eb    	clr.w     w3
    3b34:	82 2d 20    	mov.w     #0x2d8, w2
    3b36:	a1 2d 20    	mov.w     #0x2da, w1
    3b38:	20 8f 20    	mov.w     #0x8f2, w0
    3b3a:	86 00 07    	rcall     0x3c48 <_pin_init>
    3b3c:	8f 87 e9    	dec2.w    w15, w15

00003b3e <.LSM27>:
    3b3e:	60 6d 20    	mov.w     #0x6d6, w0
    3b40:	80 1f 78    	mov.w     w0, [w15++]
    3b42:	77 01 20    	mov.w     #0x17, w7
    3b44:	86 c0 b3    	mov.b     #0x8, w6
    3b46:	80 82 eb    	setm.w    w5
    3b48:	24 c0 b3    	mov.b     #0x2, w4
    3b4a:	80 01 eb    	clr.w     w3
    3b4c:	82 2d 20    	mov.w     #0x2d8, w2
    3b4e:	a1 2d 20    	mov.w     #0x2da, w1
    3b50:	80 90 20    	mov.w     #0x908, w0
    3b52:	7a 00 07    	rcall     0x3c48 <_pin_init>
    3b54:	8f 87 e9    	dec2.w    w15, w15

00003b56 <.LSM28>:
    3b56:	60 6d 20    	mov.w     #0x6d6, w0
    3b58:	80 1f 78    	mov.w     w0, [w15++]
    3b5a:	67 01 20    	mov.w     #0x16, w7
    3b5c:	00 43 eb    	clr.b     w6
    3b5e:	80 82 eb    	setm.w    w5
    3b60:	34 c0 b3    	mov.b     #0x3, w4
    3b62:	80 01 eb    	clr.w     w3
    3b64:	82 2d 20    	mov.w     #0x2d8, w2
    3b66:	a1 2d 20    	mov.w     #0x2da, w1
    3b68:	e0 91 20    	mov.w     #0x91e, w0
    3b6a:	6e 00 07    	rcall     0x3c48 <_pin_init>
    3b6c:	8f 87 e9    	dec2.w    w15, w15

00003b6e <.LSM29>:
    3b6e:	00 6c 20    	mov.w     #0x6c0, w0
    3b70:	80 1f 78    	mov.w     w0, [w15++]
    3b72:	80 03 eb    	clr.w     w7
    3b74:	00 43 eb    	clr.b     w6
    3b76:	80 02 eb    	clr.w     w5
    3b78:	00 42 eb    	clr.b     w4
    3b7a:	23 4e 20    	mov.w     #0x4e2, w3
    3b7c:	82 2c 20    	mov.w     #0x2c8, w2
    3b7e:	a1 2c 20    	mov.w     #0x2ca, w1
    3b80:	40 93 20    	mov.w     #0x934, w0
    3b82:	62 00 07    	rcall     0x3c48 <_pin_init>
    3b84:	8f 87 e9    	dec2.w    w15, w15

00003b86 <.LSM30>:
    3b86:	00 6c 20    	mov.w     #0x6c0, w0
    3b88:	80 1f 78    	mov.w     w0, [w15++]
    3b8a:	17 00 20    	mov.w     #0x1, w7
    3b8c:	86 c0 b3    	mov.b     #0x8, w6
    3b8e:	15 00 20    	mov.w     #0x1, w5
    3b90:	14 c0 b3    	mov.b     #0x1, w4
    3b92:	23 4e 20    	mov.w     #0x4e2, w3
    3b94:	82 2c 20    	mov.w     #0x2c8, w2
    3b96:	a1 2c 20    	mov.w     #0x2ca, w1
    3b98:	a0 94 20    	mov.w     #0x94a, w0
    3b9a:	56 00 07    	rcall     0x3c48 <_pin_init>
    3b9c:	8f 87 e9    	dec2.w    w15, w15

00003b9e <.LSM31>:
    3b9e:	c0 6c 20    	mov.w     #0x6cc, w0
    3ba0:	80 1f 78    	mov.w     w0, [w15++]
    3ba2:	d7 00 20    	mov.w     #0xd, w7
    3ba4:	86 c0 b3    	mov.b     #0x8, w6
    3ba6:	25 00 20    	mov.w     #0x2, w5
    3ba8:	24 c0 b3    	mov.b     #0x2, w4
    3baa:	23 4e 20    	mov.w     #0x4e2, w3
    3bac:	82 2c 20    	mov.w     #0x2c8, w2
    3bae:	a1 2c 20    	mov.w     #0x2ca, w1
    3bb0:	00 96 20    	mov.w     #0x960, w0
    3bb2:	4a 00 07    	rcall     0x3c48 <_pin_init>
    3bb4:	8f 87 e9    	dec2.w    w15, w15

00003bb6 <.LSM32>:
    3bb6:	00 00 eb    	clr.w     w0
    3bb8:	80 1f 78    	mov.w     w0, [w15++]
    3bba:	80 83 eb    	setm.w    w7
    3bbc:	00 43 eb    	clr.b     w6
    3bbe:	35 00 20    	mov.w     #0x3, w5
    3bc0:	34 c0 b3    	mov.b     #0x3, w4
    3bc2:	23 4e 20    	mov.w     #0x4e2, w3
    3bc4:	82 2c 20    	mov.w     #0x2c8, w2
    3bc6:	a1 2c 20    	mov.w     #0x2ca, w1
    3bc8:	60 97 20    	mov.w     #0x976, w0
    3bca:	3e 00 07    	rcall     0x3c48 <_pin_init>
    3bcc:	8f 87 e9    	dec2.w    w15, w15

00003bce <.LSM33>:
    3bce:	c0 6d 20    	mov.w     #0x6dc, w0
    3bd0:	80 1f 78    	mov.w     w0, [w15++]
    3bd2:	c7 01 20    	mov.w     #0x1c, w7
    3bd4:	00 43 eb    	clr.b     w6
    3bd6:	45 00 20    	mov.w     #0x4, w5
    3bd8:	44 c0 b3    	mov.b     #0x4, w4
    3bda:	23 4e 20    	mov.w     #0x4e2, w3
    3bdc:	82 2c 20    	mov.w     #0x2c8, w2
    3bde:	a1 2c 20    	mov.w     #0x2ca, w1
    3be0:	c0 98 20    	mov.w     #0x98c, w0
    3be2:	32 00 07    	rcall     0x3c48 <_pin_init>
    3be4:	8f 87 e9    	dec2.w    w15, w15

00003be6 <.LSM34>:
    3be6:	20 6d 20    	mov.w     #0x6d2, w0
    3be8:	80 1f 78    	mov.w     w0, [w15++]
    3bea:	27 01 20    	mov.w     #0x12, w7
    3bec:	00 43 eb    	clr.b     w6
    3bee:	55 00 20    	mov.w     #0x5, w5
    3bf0:	54 c0 b3    	mov.b     #0x5, w4
    3bf2:	23 4e 20    	mov.w     #0x4e2, w3
    3bf4:	82 2c 20    	mov.w     #0x2c8, w2
    3bf6:	a1 2c 20    	mov.w     #0x2ca, w1
    3bf8:	20 9a 20    	mov.w     #0x9a2, w0
    3bfa:	26 00 07    	rcall     0x3c48 <_pin_init>
    3bfc:	8f 87 e9    	dec2.w    w15, w15

00003bfe <.LSM35>:
    3bfe:	00 00 eb    	clr.w     w0
    3c00:	00 0f 78    	mov.w     w0, [w14]
    3c02:	07 00 37    	bra       0x3c12 <.L8>

00003c04 <.L9>:
    3c04:	1e 00 78    	mov.w     [w14], w0
    3c06:	76 00 b9    	mul.su    w0, #0x16, w0
    3c08:	80 00 78    	mov.w     w0, w1
    3c0a:	00 80 20    	mov.w     #0x800, w0
    3c0c:	00 80 40    	add.w     w1, w0, w0
    3c0e:	48 00 07    	rcall     0x3ca0 <_pin_digitalIn>

00003c10 <.LSM37>:
    3c10:	1e 0f e8    	inc.w     [w14], [w14]

00003c12 <.L8>:
    3c12:	1e 00 78    	mov.w     [w14], w0
    3c14:	ed 0f 50    	sub.w     w0, #0xd, [w15]
    3c16:	f6 ff 36    	bra       LEU, 0x3c04 <.L9>

00003c18 <.LSM38>:
    3c18:	00 00 eb    	clr.w     w0
    3c1a:	00 0f 78    	mov.w     w0, [w14]
    3c1c:	07 00 37    	bra       0x3c2c <.L10>

00003c1e <.L11>:
    3c1e:	1e 00 78    	mov.w     [w14], w0
    3c20:	76 00 b9    	mul.su    w0, #0x16, w0
    3c22:	80 00 78    	mov.w     w0, w1
    3c24:	40 93 20    	mov.w     #0x934, w0
    3c26:	00 80 40    	add.w     w1, w0, w0
    3c28:	97 00 07    	rcall     0x3d58 <_pin_analogIn>

00003c2a <.LSM40>:
    3c2a:	1e 0f e8    	inc.w     [w14], [w14]

00003c2c <.L10>:
    3c2c:	1e 00 78    	mov.w     [w14], w0
    3c2e:	e5 0f 50    	sub.w     w0, #0x5, [w15]
    3c30:	f6 ff 36    	bra       LEU, 0x3c1e <.L11>

00003c32 <.LSM41>:
    3c32:	00 2e 20    	mov.w     #0x2e0, w0
    3c34:	00 19 88    	mov.w     w0, 0x320

00003c36 <.LSM42>:
    3c36:	00 00 eb    	clr.w     w0
    3c38:	10 19 88    	mov.w     w0, 0x322

00003c3a <.LSM43>:
    3c3a:	00 c4 20    	mov.w     #0xc40, w0
    3c3c:	20 19 88    	mov.w     w0, 0x324

00003c3e <.LSM44>:
    3c3e:	00 00 eb    	clr.w     w0
    3c40:	40 19 88    	mov.w     w0, 0x328

00003c42 <.LSM45>:
    3c42:	21 e3 a8    	bset.b    0x321, #0x7

00003c44 <.LSM46>:
    3c44:	00 80 fa    	ulnk      
    3c46:	00 00 06    	return    

00003c48 <_pin_init>:
    3c48:	10 00 fa    	lnk       #0x10
    3c4a:	00 0f 78    	mov.w     w0, [w14]
    3c4c:	11 07 98    	mov.w     w1, [w14+2]
    3c4e:	22 07 98    	mov.w     w2, [w14+4]
    3c50:	33 07 98    	mov.w     w3, [w14+6]
    3c52:	04 4f 98    	mov.b     w4, [w14+8]
    3c54:	55 07 98    	mov.w     w5, [w14+10]
    3c56:	46 4f 98    	mov.b     w6, [w14+12]
    3c58:	77 07 98    	mov.w     w7, [w14+14]

00003c5a <.LSM48>:
    3c5a:	1e 00 78    	mov.w     [w14], w0
    3c5c:	9e 00 90    	mov.w     [w14+2], w1
    3c5e:	01 08 78    	mov.w     w1, [w0]

00003c60 <.LSM49>:
    3c60:	1e 00 78    	mov.w     [w14], w0
    3c62:	ae 00 90    	mov.w     [w14+4], w1
    3c64:	11 00 98    	mov.w     w1, [w0+2]

00003c66 <.LSM50>:
    3c66:	1e 00 78    	mov.w     [w14], w0
    3c68:	be 00 90    	mov.w     [w14+6], w1
    3c6a:	21 00 98    	mov.w     w1, [w0+4]

00003c6c <.LSM51>:
    3c6c:	1e 00 78    	mov.w     [w14], w0
    3c6e:	8e 48 90    	mov.b     [w14+8], w1
    3c70:	61 40 98    	mov.b     w1, [w0+6]

00003c72 <.LSM52>:
    3c72:	1e 00 78    	mov.w     [w14], w0
    3c74:	de 00 90    	mov.w     [w14+10], w1
    3c76:	41 00 98    	mov.w     w1, [w0+8]

00003c78 <.LSM53>:
    3c78:	1e 00 78    	mov.w     [w14], w0
    3c7a:	ce 48 90    	mov.b     [w14+12], w1
    3c7c:	21 48 98    	mov.b     w1, [w0+10]

00003c7e <.LSM54>:
    3c7e:	fe 00 90    	mov.w     [w14+14], w1
    3c80:	1e 00 78    	mov.w     [w14], w0
    3c82:	61 00 98    	mov.w     w1, [w0+12]

00003c84 <.LSM55>:
    3c84:	1e 00 78    	mov.w     [w14], w0
    3c86:	ce b8 97    	mov.w     [w14-8], w1
    3c88:	71 00 98    	mov.w     w1, [w0+14]

00003c8a <.LSM56>:
    3c8a:	1e 00 78    	mov.w     [w14], w0
    3c8c:	80 00 eb    	clr.w     w1
    3c8e:	01 08 98    	mov.w     w1, [w0+16]

00003c90 <.LSM57>:
    3c90:	1e 00 78    	mov.w     [w14], w0
    3c92:	80 00 eb    	clr.w     w1
    3c94:	11 08 98    	mov.w     w1, [w0+18]

00003c96 <.LSM58>:
    3c96:	1e 00 78    	mov.w     [w14], w0
    3c98:	80 00 eb    	clr.w     w1
    3c9a:	21 08 98    	mov.w     w1, [w0+20]

00003c9c <.LSM59>:
    3c9c:	00 80 fa    	ulnk      
    3c9e:	00 00 06    	return    

00003ca0 <_pin_digitalIn>:
    3ca0:	02 00 fa    	lnk       #0x2
    3ca2:	00 0f 78    	mov.w     w0, [w14]

00003ca4 <.LSM61>:
    3ca4:	1e 00 78    	mov.w     [w14], w0
    3ca6:	20 00 90    	mov.w     [w0+4], w0
    3ca8:	e0 0f 50    	sub.w     w0, #0x0, [w15]
    3caa:	0d 00 32    	bra       Z, 0x3cc6 <.L14>

00003cac <.LSM62>:
    3cac:	1e 00 78    	mov.w     [w14], w0
    3cae:	a0 00 90    	mov.w     [w0+4], w1
    3cb0:	1e 00 78    	mov.w     [w14], w0
    3cb2:	20 00 90    	mov.w     [w0+4], w0
    3cb4:	10 01 78    	mov.w     [w0], w2
    3cb6:	1e 00 78    	mov.w     [w14], w0
    3cb8:	60 40 90    	mov.b     [w0+6], w0
    3cba:	00 80 fb    	ze        w0, w0
    3cbc:	13 00 20    	mov.w     #0x1, w3
    3cbe:	00 18 dd    	sl.w      w3, w0, w0
    3cc0:	00 80 ea    	com.w     w0, w0
    3cc2:	00 00 61    	and.w     w2, w0, w0
    3cc4:	80 08 78    	mov.w     w0, [w1]

00003cc6 <.L14>:
    3cc6:	1e 00 78    	mov.w     [w14], w0
    3cc8:	90 00 90    	mov.w     [w0+2], w1
    3cca:	1e 00 78    	mov.w     [w14], w0
    3ccc:	10 00 90    	mov.w     [w0+2], w0
    3cce:	10 01 78    	mov.w     [w0], w2
    3cd0:	1e 00 78    	mov.w     [w14], w0
    3cd2:	60 40 90    	mov.b     [w0+6], w0
    3cd4:	00 80 fb    	ze        w0, w0
    3cd6:	13 00 20    	mov.w     #0x1, w3
    3cd8:	00 18 dd    	sl.w      w3, w0, w0
    3cda:	00 00 71    	ior.w     w2, w0, w0
    3cdc:	80 08 78    	mov.w     w0, [w1]

00003cde <.LSM64>:
    3cde:	1e 00 78    	mov.w     [w14], w0
    3ce0:	80 00 eb    	clr.w     w1
    3ce2:	11 08 98    	mov.w     w1, [w0+18]

00003ce4 <.LSM65>:
    3ce4:	1e 00 78    	mov.w     [w14], w0
    3ce6:	01 9e 23    	mov.w     #0x39e0, w1
    3ce8:	21 08 98    	mov.w     w1, [w0+20]

00003cea <.LSM66>:
    3cea:	00 80 fa    	ulnk      
    3cec:	00 00 06    	return    

00003cee <_pin_digitalOut>:
    3cee:	02 00 fa    	lnk       #0x2
    3cf0:	00 0f 78    	mov.w     w0, [w14]

00003cf2 <.LSM68>:
    3cf2:	1e 00 78    	mov.w     [w14], w0
    3cf4:	20 00 90    	mov.w     [w0+4], w0
    3cf6:	e0 0f 50    	sub.w     w0, #0x0, [w15]
    3cf8:	0d 00 32    	bra       Z, 0x3d14 <.L16>

00003cfa <.LSM69>:
    3cfa:	1e 00 78    	mov.w     [w14], w0
    3cfc:	a0 00 90    	mov.w     [w0+4], w1
    3cfe:	1e 00 78    	mov.w     [w14], w0
    3d00:	20 00 90    	mov.w     [w0+4], w0
    3d02:	10 01 78    	mov.w     [w0], w2
    3d04:	1e 00 78    	mov.w     [w14], w0
    3d06:	60 40 90    	mov.b     [w0+6], w0
    3d08:	00 80 fb    	ze        w0, w0
    3d0a:	13 00 20    	mov.w     #0x1, w3
    3d0c:	00 18 dd    	sl.w      w3, w0, w0
    3d0e:	00 80 ea    	com.w     w0, w0
    3d10:	00 00 61    	and.w     w2, w0, w0
    3d12:	80 08 78    	mov.w     w0, [w1]

00003d14 <.L16>:
    3d14:	1e 00 78    	mov.w     [w14], w0
    3d16:	90 00 78    	mov.w     [w0], w1
    3d18:	1e 00 78    	mov.w     [w14], w0
    3d1a:	10 00 78    	mov.w     [w0], w0
    3d1c:	10 01 78    	mov.w     [w0], w2
    3d1e:	1e 00 78    	mov.w     [w14], w0
    3d20:	60 40 90    	mov.b     [w0+6], w0
    3d22:	00 80 fb    	ze        w0, w0
    3d24:	13 00 20    	mov.w     #0x1, w3
    3d26:	00 18 dd    	sl.w      w3, w0, w0
    3d28:	00 80 ea    	com.w     w0, w0
    3d2a:	00 00 61    	and.w     w2, w0, w0
    3d2c:	80 08 78    	mov.w     w0, [w1]

00003d2e <.LSM71>:
    3d2e:	1e 00 78    	mov.w     [w14], w0
    3d30:	90 00 90    	mov.w     [w0+2], w1
    3d32:	1e 00 78    	mov.w     [w14], w0
    3d34:	10 00 90    	mov.w     [w0+2], w0
    3d36:	10 01 78    	mov.w     [w0], w2
    3d38:	1e 00 78    	mov.w     [w14], w0
    3d3a:	60 40 90    	mov.b     [w0+6], w0
    3d3c:	00 80 fb    	ze        w0, w0
    3d3e:	13 00 20    	mov.w     #0x1, w3
    3d40:	00 18 dd    	sl.w      w3, w0, w0
    3d42:	00 80 ea    	com.w     w0, w0
    3d44:	00 00 61    	and.w     w2, w0, w0
    3d46:	80 08 78    	mov.w     w0, [w1]

00003d48 <.LSM72>:
    3d48:	1e 00 78    	mov.w     [w14], w0
    3d4a:	c1 99 23    	mov.w     #0x399c, w1
    3d4c:	11 08 98    	mov.w     w1, [w0+18]

00003d4e <.LSM73>:
    3d4e:	1e 00 78    	mov.w     [w14], w0
    3d50:	01 9e 23    	mov.w     #0x39e0, w1
    3d52:	21 08 98    	mov.w     w1, [w0+20]

00003d54 <.LSM74>:
    3d54:	00 80 fa    	ulnk      
    3d56:	00 00 06    	return    

00003d58 <_pin_analogIn>:
    3d58:	02 00 fa    	lnk       #0x2
    3d5a:	00 0f 78    	mov.w     w0, [w14]

00003d5c <.LSM76>:
    3d5c:	1e 00 78    	mov.w     [w14], w0
    3d5e:	20 00 90    	mov.w     [w0+4], w0
    3d60:	e0 0f 50    	sub.w     w0, #0x0, [w15]
    3d62:	1f 00 32    	bra       Z, 0x3da2 <.L20>

00003d64 <.LSM77>:
    3d64:	1e 00 78    	mov.w     [w14], w0
    3d66:	90 00 90    	mov.w     [w0+2], w1
    3d68:	1e 00 78    	mov.w     [w14], w0
    3d6a:	10 00 90    	mov.w     [w0+2], w0
    3d6c:	10 01 78    	mov.w     [w0], w2
    3d6e:	1e 00 78    	mov.w     [w14], w0
    3d70:	60 40 90    	mov.b     [w0+6], w0
    3d72:	00 80 fb    	ze        w0, w0
    3d74:	13 00 20    	mov.w     #0x1, w3
    3d76:	00 18 dd    	sl.w      w3, w0, w0
    3d78:	00 00 71    	ior.w     w2, w0, w0
    3d7a:	80 08 78    	mov.w     w0, [w1]

00003d7c <.LSM78>:
    3d7c:	1e 00 78    	mov.w     [w14], w0
    3d7e:	a0 00 90    	mov.w     [w0+4], w1
    3d80:	1e 00 78    	mov.w     [w14], w0
    3d82:	20 00 90    	mov.w     [w0+4], w0
    3d84:	10 01 78    	mov.w     [w0], w2
    3d86:	1e 00 78    	mov.w     [w14], w0
    3d88:	60 40 90    	mov.b     [w0+6], w0
    3d8a:	00 80 fb    	ze        w0, w0
    3d8c:	13 00 20    	mov.w     #0x1, w3
    3d8e:	00 18 dd    	sl.w      w3, w0, w0
    3d90:	00 00 71    	ior.w     w2, w0, w0
    3d92:	80 08 78    	mov.w     w0, [w1]

00003d94 <.LSM79>:
    3d94:	1e 00 78    	mov.w     [w14], w0
    3d96:	80 00 eb    	clr.w     w1
    3d98:	11 08 98    	mov.w     w1, [w0+18]

00003d9a <.LSM80>:
    3d9a:	1e 00 78    	mov.w     [w14], w0
    3d9c:	01 a0 23    	mov.w     #0x3a00, w1
    3d9e:	21 08 98    	mov.w     w1, [w0+20]
    3da0:	01 00 37    	bra       0x3da4 <.L17>

00003da2 <.L20>:
    3da2:	00 00 00    	nop       

00003da4 <.L17>:
    3da4:	00 80 fa    	ulnk      
    3da6:	00 00 06    	return    

00003da8 <_pin_set>:
    3da8:	02 00 fa    	lnk       #0x2
    3daa:	00 0f 78    	mov.w     w0, [w14]

00003dac <.LSM84>:
    3dac:	1e 00 78    	mov.w     [w14], w0
    3dae:	90 08 90    	mov.w     [w0+18], w1
    3db0:	c0 99 23    	mov.w     #0x399c, w0
    3db2:	80 8f 50    	sub.w     w1, w0, [w15]
    3db4:	0c 00 3a    	bra       NZ, 0x3dce <.L21>

00003db6 <.LSM85>:
    3db6:	1e 00 78    	mov.w     [w14], w0
    3db8:	90 00 78    	mov.w     [w0], w1
    3dba:	1e 00 78    	mov.w     [w14], w0
    3dbc:	10 00 78    	mov.w     [w0], w0
    3dbe:	10 01 78    	mov.w     [w0], w2
    3dc0:	1e 00 78    	mov.w     [w14], w0
    3dc2:	60 40 90    	mov.b     [w0+6], w0
    3dc4:	00 80 fb    	ze        w0, w0
    3dc6:	13 00 20    	mov.w     #0x1, w3
    3dc8:	00 18 dd    	sl.w      w3, w0, w0
    3dca:	00 00 71    	ior.w     w2, w0, w0
    3dcc:	80 08 78    	mov.w     w0, [w1]

00003dce <.L21>:
    3dce:	00 80 fa    	ulnk      
    3dd0:	00 00 06    	return    

00003dd2 <_pin_clear>:
    3dd2:	02 00 fa    	lnk       #0x2
    3dd4:	00 0f 78    	mov.w     w0, [w14]

00003dd6 <.LSM88>:
    3dd6:	1e 00 78    	mov.w     [w14], w0
    3dd8:	90 08 90    	mov.w     [w0+18], w1
    3dda:	c0 99 23    	mov.w     #0x399c, w0
    3ddc:	80 8f 50    	sub.w     w1, w0, [w15]
    3dde:	0d 00 3a    	bra       NZ, 0x3dfa <.L23>

00003de0 <.LSM89>:
    3de0:	1e 00 78    	mov.w     [w14], w0
    3de2:	90 00 78    	mov.w     [w0], w1
    3de4:	1e 00 78    	mov.w     [w14], w0
    3de6:	10 00 78    	mov.w     [w0], w0
    3de8:	10 01 78    	mov.w     [w0], w2
    3dea:	1e 00 78    	mov.w     [w14], w0
    3dec:	60 40 90    	mov.b     [w0+6], w0
    3dee:	00 80 fb    	ze        w0, w0
    3df0:	13 00 20    	mov.w     #0x1, w3
    3df2:	00 18 dd    	sl.w      w3, w0, w0
    3df4:	00 80 ea    	com.w     w0, w0
    3df6:	00 00 61    	and.w     w2, w0, w0
    3df8:	80 08 78    	mov.w     w0, [w1]

00003dfa <.L23>:
    3dfa:	00 80 fa    	ulnk      
    3dfc:	00 00 06    	return    

00003dfe <_pin_toggle>:
    3dfe:	02 00 fa    	lnk       #0x2
    3e00:	00 0f 78    	mov.w     w0, [w14]

00003e02 <.LSM92>:
    3e02:	1e 00 78    	mov.w     [w14], w0
    3e04:	90 08 90    	mov.w     [w0+18], w1
    3e06:	c0 99 23    	mov.w     #0x399c, w0
    3e08:	80 8f 50    	sub.w     w1, w0, [w15]
    3e0a:	0c 00 3a    	bra       NZ, 0x3e24 <.L25>

00003e0c <.LSM93>:
    3e0c:	1e 00 78    	mov.w     [w14], w0
    3e0e:	90 00 78    	mov.w     [w0], w1
    3e10:	1e 00 78    	mov.w     [w14], w0
    3e12:	10 00 78    	mov.w     [w0], w0
    3e14:	10 01 78    	mov.w     [w0], w2
    3e16:	1e 00 78    	mov.w     [w14], w0
    3e18:	60 40 90    	mov.b     [w0+6], w0
    3e1a:	00 80 fb    	ze        w0, w0
    3e1c:	13 00 20    	mov.w     #0x1, w3
    3e1e:	00 18 dd    	sl.w      w3, w0, w0
    3e20:	00 00 69    	xor.w     w2, w0, w0
    3e22:	80 08 78    	mov.w     w0, [w1]

00003e24 <.L25>:
    3e24:	00 80 fa    	ulnk      
    3e26:	00 00 06    	return    

00003e28 <_pin_write>:
    3e28:	04 00 fa    	lnk       #0x4
    3e2a:	00 0f 78    	mov.w     w0, [w14]
    3e2c:	11 07 98    	mov.w     w1, [w14+2]

00003e2e <.LSM96>:
    3e2e:	1e 00 78    	mov.w     [w14], w0
    3e30:	10 08 90    	mov.w     [w0+18], w0
    3e32:	e0 0f 50    	sub.w     w0, #0x0, [w15]
    3e34:	05 00 32    	bra       Z, 0x3e40 <.L27>

00003e36 <.LSM97>:
    3e36:	1e 00 78    	mov.w     [w14], w0
    3e38:	10 09 90    	mov.w     [w0+18], w2
    3e3a:	9e 00 90    	mov.w     [w14+2], w1
    3e3c:	1e 00 78    	mov.w     [w14], w0
    3e3e:	02 00 01    	call      w2

00003e40 <.L27>:
    3e40:	00 80 fa    	ulnk      
    3e42:	00 00 06    	return    

00003e44 <_pin_read>:
    3e44:	02 00 fa    	lnk       #0x2
    3e46:	00 0f 78    	mov.w     w0, [w14]

00003e48 <.LSM100>:
    3e48:	1e 00 78    	mov.w     [w14], w0
    3e4a:	20 08 90    	mov.w     [w0+20], w0
    3e4c:	e0 0f 50    	sub.w     w0, #0x0, [w15]
    3e4e:	05 00 32    	bra       Z, 0x3e5a <.L30>

00003e50 <.LSM101>:
    3e50:	1e 00 78    	mov.w     [w14], w0
    3e52:	a0 08 90    	mov.w     [w0+20], w1
    3e54:	1e 00 78    	mov.w     [w14], w0
    3e56:	01 00 01    	call      w1
    3e58:	01 00 37    	bra       0x3e5c <.L31>

00003e5a <.L30>:
    3e5a:	00 80 eb    	setm.w    w0

00003e5c <.L31>:
    3e5c:	00 80 fa    	ulnk      
    3e5e:	00 00 06    	return    

00003e60 <___pwmRead>:
    3e60:	08 00 fa    	lnk       #0x8
    3e62:	30 07 98    	mov.w     w0, [w14+6]

00003e64 <.LSM1>:
    3e64:	3e 00 90    	mov.w     [w14+6], w0
    3e66:	00 08 90    	mov.w     [w0+16], w0
    3e68:	00 0f 78    	mov.w     w0, [w14]

00003e6a <.LSM2>:
    3e6a:	00 00 eb    	clr.w     w0
    3e6c:	10 07 98    	mov.w     w0, [w14+2]

00003e6e <.LSM3>:
    3e6e:	1e 00 78    	mov.w     [w14], w0
    3e70:	30 00 90    	mov.w     [w0+6], w0
    3e72:	10 00 78    	mov.w     [w0], w0
    3e74:	20 07 98    	mov.w     w0, [w14+4]

00003e76 <.LSM4>:
    3e76:	1e 02 90    	mov.w     [w14+2], w4
    3e78:	ae 02 90    	mov.w     [w14+4], w5
    3e7a:	1e 00 78    	mov.w     [w14], w0
    3e7c:	20 00 90    	mov.w     [w0+4], w0
    3e7e:	10 00 78    	mov.w     [w0], w0
    3e80:	01 00 20    	mov.w     #0x0, w1
    3e82:	00 01 be    	mov.d     w0, w2
    3e84:	04 00 be    	mov.d     w4, w0
    3e86:	25 eb 07    	rcall     0x14d2 <___udivsi3>
    3e88:	00 00 78    	mov.w     w0, w0

00003e8a <.LSM5>:
    3e8a:	00 80 fa    	ulnk      
    3e8c:	00 00 06    	return    

00003e8e <___pwmWrite>:
    3e8e:	0a 00 fa    	lnk       #0xa
    3e90:	30 07 98    	mov.w     w0, [w14+6]
    3e92:	41 07 98    	mov.w     w1, [w14+8]

00003e94 <.LSM7>:
    3e94:	3e 00 90    	mov.w     [w14+6], w0
    3e96:	00 08 90    	mov.w     [w0+16], w0
    3e98:	00 0f 78    	mov.w     w0, [w14]

00003e9a <.LSM8>:
    3e9a:	4e 00 90    	mov.w     [w14+8], w0
    3e9c:	61 01 b8    	mul.uu    w0, #0x1, w2
    3e9e:	1e 00 78    	mov.w     [w14], w0
    3ea0:	20 00 90    	mov.w     [w0+4], w0
    3ea2:	10 00 78    	mov.w     [w0], w0
    3ea4:	01 00 20    	mov.w     #0x0, w1
    3ea6:	00 9a b9    	mul.ss    w3, w0, w4
    3ea8:	04 02 78    	mov.w     w4, w4
    3eaa:	02 8b b9    	mul.ss    w1, w2, w6
    3eac:	86 02 78    	mov.w     w6, w5
    3eae:	05 02 42    	add.w     w4, w5, w4
    3eb0:	00 10 b8    	mul.uu    w2, w0, w0
    3eb2:	01 02 42    	add.w     w4, w1, w4
    3eb4:	84 00 78    	mov.w     w4, w1
    3eb6:	10 07 98    	mov.w     w0, [w14+2]
    3eb8:	21 07 98    	mov.w     w1, [w14+4]

00003eba <.LSM9>:
    3eba:	1e 00 78    	mov.w     [w14], w0
    3ebc:	30 00 90    	mov.w     [w0+6], w0
    3ebe:	ae 00 90    	mov.w     [w14+4], w1
    3ec0:	01 08 78    	mov.w     w1, [w0]

00003ec2 <.LSM10>:
    3ec2:	00 80 fa    	ulnk      
    3ec4:	00 00 06    	return    

00003ec6 <___servoRead>:
    3ec6:	08 00 fa    	lnk       #0x8
    3ec8:	30 07 98    	mov.w     w0, [w14+6]

00003eca <.LSM12>:
    3eca:	3e 00 90    	mov.w     [w14+6], w0
    3ecc:	00 08 90    	mov.w     [w0+16], w0
    3ece:	00 0f 78    	mov.w     w0, [w14]

00003ed0 <.LSM13>:
    3ed0:	00 00 eb    	clr.w     w0
    3ed2:	10 07 98    	mov.w     w0, [w14+2]

00003ed4 <.LSM14>:
    3ed4:	1e 00 78    	mov.w     [w14], w0
    3ed6:	20 00 90    	mov.w     [w0+4], w0
    3ed8:	90 00 78    	mov.w     [w0], w1
    3eda:	1e 00 78    	mov.w     [w14], w0
    3edc:	60 00 90    	mov.w     [w0+12], w0
    3ede:	00 80 50    	sub.w     w1, w0, w0
    3ee0:	20 07 98    	mov.w     w0, [w14+4]

00003ee2 <.LSM15>:
    3ee2:	1e 02 90    	mov.w     [w14+2], w4
    3ee4:	ae 02 90    	mov.w     [w14+4], w5
    3ee6:	1e 00 78    	mov.w     [w14], w0
    3ee8:	70 00 90    	mov.w     [w0+14], w0
    3eea:	01 00 20    	mov.w     #0x0, w1
    3eec:	00 01 be    	mov.d     w0, w2
    3eee:	04 00 be    	mov.d     w4, w0
    3ef0:	f0 ea 07    	rcall     0x14d2 <___udivsi3>
    3ef2:	00 00 78    	mov.w     w0, w0

00003ef4 <.LSM16>:
    3ef4:	00 80 fa    	ulnk      
    3ef6:	00 00 06    	return    

00003ef8 <___servoWrite>:
    3ef8:	0a 00 fa    	lnk       #0xa
    3efa:	30 07 98    	mov.w     w0, [w14+6]
    3efc:	41 07 98    	mov.w     w1, [w14+8]

00003efe <.LSM18>:
    3efe:	3e 00 90    	mov.w     [w14+6], w0
    3f00:	00 08 90    	mov.w     [w0+16], w0
    3f02:	00 0f 78    	mov.w     w0, [w14]

00003f04 <.LSM19>:
    3f04:	4e 00 90    	mov.w     [w14+8], w0
    3f06:	61 01 b8    	mul.uu    w0, #0x1, w2
    3f08:	1e 00 78    	mov.w     [w14], w0
    3f0a:	70 00 90    	mov.w     [w0+14], w0
    3f0c:	01 00 20    	mov.w     #0x0, w1
    3f0e:	00 9a b9    	mul.ss    w3, w0, w4
    3f10:	04 02 78    	mov.w     w4, w4
    3f12:	02 8b b9    	mul.ss    w1, w2, w6
    3f14:	86 02 78    	mov.w     w6, w5
    3f16:	05 02 42    	add.w     w4, w5, w4
    3f18:	00 10 b8    	mul.uu    w2, w0, w0
    3f1a:	01 02 42    	add.w     w4, w1, w4
    3f1c:	84 00 78    	mov.w     w4, w1
    3f1e:	10 07 98    	mov.w     w0, [w14+2]
    3f20:	21 07 98    	mov.w     w1, [w14+4]

00003f22 <.LSM20>:
    3f22:	1e 00 78    	mov.w     [w14], w0
    3f24:	20 00 90    	mov.w     [w0+4], w0
    3f26:	9e 00 78    	mov.w     [w14], w1
    3f28:	61 01 90    	mov.w     [w1+12], w2
    3f2a:	ae 00 90    	mov.w     [w14+4], w1
    3f2c:	81 00 41    	add.w     w2, w1, w1
    3f2e:	01 08 78    	mov.w     w1, [w0]

00003f30 <.LSM21>:
    3f30:	00 80 fa    	ulnk      
    3f32:	00 00 06    	return    

00003f34 <_init_oc>:
    3f34:	00 00 fa    	lnk       #0x0

00003f36 <.LSM23>:
    3f36:	26 01 20    	mov.w     #0x12, w6
    3f38:	85 19 20    	mov.w     #0x198, w5
    3f3a:	64 19 20    	mov.w     #0x196, w4
    3f3c:	43 19 20    	mov.w     #0x194, w3
    3f3e:	22 19 20    	mov.w     #0x192, w2
    3f40:	01 19 20    	mov.w     #0x190, w1
    3f42:	80 ad 20    	mov.w     #0xad8, w0
    3f44:	42 00 07    	rcall     0x3fca <_oc_init>

00003f46 <.LSM24>:
    3f46:	36 01 20    	mov.w     #0x13, w6
    3f48:	25 1a 20    	mov.w     #0x1a2, w5
    3f4a:	04 1a 20    	mov.w     #0x1a0, w4
    3f4c:	e3 19 20    	mov.w     #0x19e, w3
    3f4e:	c2 19 20    	mov.w     #0x19c, w2
    3f50:	a1 19 20    	mov.w     #0x19a, w1
    3f52:	a0 ae 20    	mov.w     #0xaea, w0
    3f54:	3a 00 07    	rcall     0x3fca <_oc_init>

00003f56 <.LSM25>:
    3f56:	46 01 20    	mov.w     #0x14, w6
    3f58:	c5 1a 20    	mov.w     #0x1ac, w5
    3f5a:	a4 1a 20    	mov.w     #0x1aa, w4
    3f5c:	83 1a 20    	mov.w     #0x1a8, w3
    3f5e:	62 1a 20    	mov.w     #0x1a6, w2
    3f60:	41 1a 20    	mov.w     #0x1a4, w1
    3f62:	c0 af 20    	mov.w     #0xafc, w0
    3f64:	32 00 07    	rcall     0x3fca <_oc_init>

00003f66 <.LSM26>:
    3f66:	56 01 20    	mov.w     #0x15, w6
    3f68:	65 1b 20    	mov.w     #0x1b6, w5
    3f6a:	44 1b 20    	mov.w     #0x1b4, w4
    3f6c:	23 1b 20    	mov.w     #0x1b2, w3
    3f6e:	02 1b 20    	mov.w     #0x1b0, w2
    3f70:	e1 1a 20    	mov.w     #0x1ae, w1
    3f72:	e0 b0 20    	mov.w     #0xb0e, w0
    3f74:	2a 00 07    	rcall     0x3fca <_oc_init>

00003f76 <.LSM27>:
    3f76:	66 01 20    	mov.w     #0x16, w6
    3f78:	05 1c 20    	mov.w     #0x1c0, w5
    3f7a:	e4 1b 20    	mov.w     #0x1be, w4
    3f7c:	c3 1b 20    	mov.w     #0x1bc, w3
    3f7e:	a2 1b 20    	mov.w     #0x1ba, w2
    3f80:	81 1b 20    	mov.w     #0x1b8, w1
    3f82:	00 b2 20    	mov.w     #0xb20, w0
    3f84:	22 00 07    	rcall     0x3fca <_oc_init>

00003f86 <.LSM28>:
    3f86:	76 01 20    	mov.w     #0x17, w6
    3f88:	a5 1c 20    	mov.w     #0x1ca, w5
    3f8a:	84 1c 20    	mov.w     #0x1c8, w4
    3f8c:	63 1c 20    	mov.w     #0x1c6, w3
    3f8e:	42 1c 20    	mov.w     #0x1c4, w2
    3f90:	21 1c 20    	mov.w     #0x1c2, w1
    3f92:	20 b3 20    	mov.w     #0xb32, w0
    3f94:	1a 00 07    	rcall     0x3fca <_oc_init>

00003f96 <.LSM29>:
    3f96:	86 01 20    	mov.w     #0x18, w6
    3f98:	45 1d 20    	mov.w     #0x1d4, w5
    3f9a:	24 1d 20    	mov.w     #0x1d2, w4
    3f9c:	03 1d 20    	mov.w     #0x1d0, w3
    3f9e:	e2 1c 20    	mov.w     #0x1ce, w2
    3fa0:	c1 1c 20    	mov.w     #0x1cc, w1
    3fa2:	40 b4 20    	mov.w     #0xb44, w0
    3fa4:	12 00 07    	rcall     0x3fca <_oc_init>

00003fa6 <.LSM30>:
    3fa6:	96 01 20    	mov.w     #0x19, w6
    3fa8:	e5 1d 20    	mov.w     #0x1de, w5
    3faa:	c4 1d 20    	mov.w     #0x1dc, w4
    3fac:	a3 1d 20    	mov.w     #0x1da, w3
    3fae:	82 1d 20    	mov.w     #0x1d8, w2
    3fb0:	61 1d 20    	mov.w     #0x1d6, w1
    3fb2:	60 b5 20    	mov.w     #0xb56, w0
    3fb4:	0a 00 07    	rcall     0x3fca <_oc_init>

00003fb6 <.LSM31>:
    3fb6:	36 02 20    	mov.w     #0x23, w6
    3fb8:	85 1e 20    	mov.w     #0x1e8, w5
    3fba:	64 1e 20    	mov.w     #0x1e6, w4
    3fbc:	43 1e 20    	mov.w     #0x1e4, w3
    3fbe:	22 1e 20    	mov.w     #0x1e2, w2
    3fc0:	01 1e 20    	mov.w     #0x1e0, w1
    3fc2:	80 b6 20    	mov.w     #0xb68, w0
    3fc4:	02 00 07    	rcall     0x3fca <_oc_init>

00003fc6 <.LSM32>:
    3fc6:	00 80 fa    	ulnk      
    3fc8:	00 00 06    	return    

00003fca <_oc_init>:
    3fca:	0e 00 fa    	lnk       #0xe
    3fcc:	00 0f 78    	mov.w     w0, [w14]
    3fce:	11 07 98    	mov.w     w1, [w14+2]
    3fd0:	22 07 98    	mov.w     w2, [w14+4]
    3fd2:	33 07 98    	mov.w     w3, [w14+6]
    3fd4:	44 07 98    	mov.w     w4, [w14+8]
    3fd6:	55 07 98    	mov.w     w5, [w14+10]
    3fd8:	66 07 98    	mov.w     w6, [w14+12]

00003fda <.LSM34>:
    3fda:	1e 00 78    	mov.w     [w14], w0
    3fdc:	9e 00 90    	mov.w     [w14+2], w1
    3fde:	01 08 78    	mov.w     w1, [w0]

00003fe0 <.LSM35>:
    3fe0:	1e 00 78    	mov.w     [w14], w0
    3fe2:	ae 00 90    	mov.w     [w14+4], w1
    3fe4:	11 00 98    	mov.w     w1, [w0+2]

00003fe6 <.LSM36>:
    3fe6:	1e 00 78    	mov.w     [w14], w0
    3fe8:	be 00 90    	mov.w     [w14+6], w1
    3fea:	21 00 98    	mov.w     w1, [w0+4]

00003fec <.LSM37>:
    3fec:	1e 00 78    	mov.w     [w14], w0
    3fee:	ce 00 90    	mov.w     [w14+8], w1
    3ff0:	31 00 98    	mov.w     w1, [w0+6]

00003ff2 <.LSM38>:
    3ff2:	1e 00 78    	mov.w     [w14], w0
    3ff4:	de 00 90    	mov.w     [w14+10], w1
    3ff6:	41 00 98    	mov.w     w1, [w0+8]

00003ff8 <.LSM39>:
    3ff8:	1e 00 78    	mov.w     [w14], w0
    3ffa:	01 e8 23    	mov.w     #0x3e80, w1
    3ffc:	61 00 98    	mov.w     w1, [w0+12]

00003ffe <.LSM40>:
    3ffe:	1e 00 78    	mov.w     [w14], w0
    4000:	01 e8 23    	mov.w     #0x3e80, w1
    4002:	71 00 98    	mov.w     w1, [w0+14]

00004004 <.LSM41>:
    4004:	1e 00 78    	mov.w     [w14], w0
    4006:	ee 00 90    	mov.w     [w14+12], w1
    4008:	51 00 98    	mov.w     w1, [w0+10]

0000400a <.LSM42>:
    400a:	1e 00 78    	mov.w     [w14], w0
    400c:	80 00 eb    	clr.w     w1
    400e:	01 08 98    	mov.w     w1, [w0+16]

00004010 <.LSM43>:
    4010:	00 80 fa    	ulnk      
    4012:	00 00 06    	return    

00004014 <_oc_free>:
    4014:	02 00 fa    	lnk       #0x2
    4016:	00 0f 78    	mov.w     w0, [w14]

00004018 <.LSM45>:
    4018:	1e 00 78    	mov.w     [w14], w0
    401a:	10 00 78    	mov.w     [w0], w0
    401c:	80 00 eb    	clr.w     w1
    401e:	01 08 78    	mov.w     w1, [w0]

00004020 <.LSM46>:
    4020:	1e 00 78    	mov.w     [w14], w0
    4022:	10 00 90    	mov.w     [w0+2], w0
    4024:	80 00 eb    	clr.w     w1
    4026:	01 08 78    	mov.w     w1, [w0]

00004028 <.LSM47>:
    4028:	1e 00 78    	mov.w     [w14], w0
    402a:	00 08 90    	mov.w     [w0+16], w0
    402c:	e0 0f 50    	sub.w     w0, #0x0, [w15]
    402e:	2f 00 32    	bra       Z, 0x408e <.L7>

00004030 <.LSM48>:
    4030:	11 3a 80    	mov.w     0x742, w1
    4032:	f0 0b 20    	mov.w     #0xbf, w0
    4034:	00 81 60    	and.w     w1, w0, w2
    4036:	60 04 20    	mov.w     #0x46, w0
    4038:	71 05 20    	mov.w     #0x57, w1
    403a:	23 74 20    	mov.w     #0x742, w3
    403c:	80 49 78    	mov.b     w0, [w3]
    403e:	81 49 78    	mov.b     w1, [w3]
    4040:	82 49 78    	mov.b     w2, [w3]

00004042 <.LSM49>:
    4042:	1e 00 78    	mov.w     [w14], w0
    4044:	00 08 90    	mov.w     [w0+16], w0
    4046:	f0 00 90    	mov.w     [w0+14], w1
    4048:	1e 00 78    	mov.w     [w14], w0
    404a:	00 08 90    	mov.w     [w0+16], w0
    404c:	70 00 90    	mov.w     [w0+14], w0
    404e:	10 01 78    	mov.w     [w0], w2
    4050:	1e 00 78    	mov.w     [w14], w0
    4052:	00 08 90    	mov.w     [w0+16], w0
    4054:	20 48 90    	mov.b     [w0+10], w0
    4056:	00 80 fb    	ze        w0, w0
    4058:	f3 03 20    	mov.w     #0x3f, w3
    405a:	00 18 dd    	sl.w      w3, w0, w0
    405c:	00 80 ea    	com.w     w0, w0
    405e:	00 00 61    	and.w     w2, w0, w0
    4060:	80 08 78    	mov.w     w0, [w1]

00004062 <.LSM50>:
    4062:	11 3a 80    	mov.w     0x742, w1
    4064:	00 04 20    	mov.w     #0x40, w0
    4066:	00 81 70    	ior.w     w1, w0, w2
    4068:	60 04 20    	mov.w     #0x46, w0
    406a:	71 05 20    	mov.w     #0x57, w1
    406c:	23 74 20    	mov.w     #0x742, w3
    406e:	80 49 78    	mov.b     w0, [w3]
    4070:	81 49 78    	mov.b     w1, [w3]
    4072:	82 49 78    	mov.b     w2, [w3]

00004074 <.LSM51>:
    4074:	1e 00 78    	mov.w     [w14], w0
    4076:	00 08 90    	mov.w     [w0+16], w0
    4078:	80 00 eb    	clr.w     w1
    407a:	01 08 98    	mov.w     w1, [w0+16]

0000407c <.LSM52>:
    407c:	1e 00 78    	mov.w     [w14], w0
    407e:	00 08 90    	mov.w     [w0+16], w0
    4080:	36 fe 07    	rcall     0x3cee <_pin_digitalOut>

00004082 <.LSM53>:
    4082:	1e 00 78    	mov.w     [w14], w0
    4084:	00 08 90    	mov.w     [w0+16], w0
    4086:	a5 fe 07    	rcall     0x3dd2 <_pin_clear>

00004088 <.LSM54>:
    4088:	1e 00 78    	mov.w     [w14], w0
    408a:	80 00 eb    	clr.w     w1
    408c:	01 08 98    	mov.w     w1, [w0+16]

0000408e <.L7>:
    408e:	00 80 fa    	ulnk      
    4090:	00 00 06    	return    

00004092 <_oc_pwm>:
    4092:	10 00 fa    	lnk       #0x10
    4094:	88 1f 78    	mov.w     w8, [w15++]
    4096:	20 07 98    	mov.w     w0, [w14+4]
    4098:	31 07 98    	mov.w     w1, [w14+6]
    409a:	42 07 98    	mov.w     w2, [w14+8]
    409c:	54 07 98    	mov.w     w4, [w14+10]
    409e:	65 07 98    	mov.w     w5, [w14+12]
    40a0:	73 07 98    	mov.w     w3, [w14+14]

000040a2 <.LSM57>:
    40a2:	3e 00 90    	mov.w     [w14+6], w0
    40a4:	60 00 90    	mov.w     [w0+12], w0
    40a6:	e1 0f 40    	add.w     w0, #0x1, [w15]
    40a8:	9c 00 32    	bra       Z, 0x41e2 <.L18>

000040aa <.LSM58>:
    40aa:	3e 00 90    	mov.w     [w14+6], w0
    40ac:	00 08 90    	mov.w     [w0+16], w0
    40ae:	e0 0f 50    	sub.w     w0, #0x0, [w15]
    40b0:	33 00 3a    	bra       NZ, 0x4118 <.L12>

000040b2 <.LSM59>:
    40b2:	2e 00 90    	mov.w     [w14+4], w0
    40b4:	be 00 90    	mov.w     [w14+6], w1
    40b6:	01 08 98    	mov.w     w1, [w0+16]

000040b8 <.LSM60>:
    40b8:	3e 00 90    	mov.w     [w14+6], w0
    40ba:	ae 00 90    	mov.w     [w14+4], w1
    40bc:	01 08 98    	mov.w     w1, [w0+16]

000040be <.LSM61>:
    40be:	11 3a 80    	mov.w     0x742, w1
    40c0:	f0 0b 20    	mov.w     #0xbf, w0
    40c2:	00 81 60    	and.w     w1, w0, w2
    40c4:	60 04 20    	mov.w     #0x46, w0
    40c6:	71 05 20    	mov.w     #0x57, w1
    40c8:	23 74 20    	mov.w     #0x742, w3
    40ca:	80 49 78    	mov.b     w0, [w3]
    40cc:	81 49 78    	mov.b     w1, [w3]
    40ce:	82 49 78    	mov.b     w2, [w3]

000040d0 <.LSM62>:
    40d0:	3e 00 90    	mov.w     [w14+6], w0
    40d2:	f0 00 90    	mov.w     [w0+14], w1
    40d4:	3e 00 90    	mov.w     [w14+6], w0
    40d6:	70 00 90    	mov.w     [w0+14], w0
    40d8:	10 01 78    	mov.w     [w0], w2
    40da:	3e 00 90    	mov.w     [w14+6], w0
    40dc:	20 48 90    	mov.b     [w0+10], w0
    40de:	00 80 fb    	ze        w0, w0
    40e0:	f3 03 20    	mov.w     #0x3f, w3
    40e2:	00 18 dd    	sl.w      w3, w0, w0
    40e4:	00 80 ea    	com.w     w0, w0
    40e6:	00 00 61    	and.w     w2, w0, w0
    40e8:	80 08 78    	mov.w     w0, [w1]

000040ea <.LSM63>:
    40ea:	3e 00 90    	mov.w     [w14+6], w0
    40ec:	f0 00 90    	mov.w     [w0+14], w1
    40ee:	3e 00 90    	mov.w     [w14+6], w0
    40f0:	70 00 90    	mov.w     [w0+14], w0
    40f2:	10 01 78    	mov.w     [w0], w2
    40f4:	2e 00 90    	mov.w     [w14+4], w0
    40f6:	d0 01 90    	mov.w     [w0+10], w3
    40f8:	3e 00 90    	mov.w     [w14+6], w0
    40fa:	20 48 90    	mov.b     [w0+10], w0
    40fc:	00 80 fb    	ze        w0, w0
    40fe:	00 18 dd    	sl.w      w3, w0, w0
    4100:	00 00 71    	ior.w     w2, w0, w0
    4102:	80 08 78    	mov.w     w0, [w1]

00004104 <.LSM64>:
    4104:	11 3a 80    	mov.w     0x742, w1
    4106:	00 04 20    	mov.w     #0x40, w0
    4108:	00 81 70    	ior.w     w1, w0, w2
    410a:	60 04 20    	mov.w     #0x46, w0
    410c:	71 05 20    	mov.w     #0x57, w1
    410e:	23 74 20    	mov.w     #0x742, w3
    4110:	80 49 78    	mov.b     w0, [w3]
    4112:	81 49 78    	mov.b     w1, [w3]
    4114:	82 49 78    	mov.b     w2, [w3]
    4116:	05 00 37    	bra       0x4122 <.L13>

00004118 <.L12>:
    4118:	3e 00 90    	mov.w     [w14+6], w0
    411a:	80 08 90    	mov.w     [w0+16], w1
    411c:	2e 00 90    	mov.w     [w14+4], w0
    411e:	80 8f 50    	sub.w     w1, w0, [w15]
    4120:	62 00 3a    	bra       NZ, 0x41e6 <.L19>

00004122 <.L13>:
    4122:	4e 00 90    	mov.w     [w14+8], w0
    4124:	e0 0f 50    	sub.w     w0, #0x0, [w15]
    4126:	1c 00 32    	bra       Z, 0x4160 <.L14>

00004128 <.LSM67>:
    4128:	2e 00 90    	mov.w     [w14+4], w0
    412a:	10 00 78    	mov.w     [w0], w0
    412c:	ce 00 90    	mov.w     [w14+8], w1
    412e:	e1 00 90    	mov.w     [w1+12], w1
    4130:	ca 08 dd    	sl.w      w1, #0xa, w1
    4132:	61 00 b3    	ior.w     #0x6, w1
    4134:	01 08 78    	mov.w     w1, [w0]

00004136 <.LSM68>:
    4136:	2e 00 90    	mov.w     [w14+4], w0
    4138:	10 00 90    	mov.w     [w0+2], w0
    413a:	f1 01 20    	mov.w     #0x1f, w1
    413c:	01 08 78    	mov.w     w1, [w0]

0000413e <.LSM69>:
    413e:	5e 01 90    	mov.w     [w14+10], w2
    4140:	ee 01 90    	mov.w     [w14+12], w3
    4142:	4e 00 90    	mov.w     [w14+8], w0
    4144:	47 fb 07    	rcall     0x37d4 <_timer_setFreq>

00004146 <.LSM70>:
    4146:	2e 00 90    	mov.w     [w14+4], w0
    4148:	20 00 90    	mov.w     [w0+4], w0
    414a:	ce 00 90    	mov.w     [w14+8], w1
    414c:	91 00 90    	mov.w     [w1+2], w1
    414e:	91 00 78    	mov.w     [w1], w1
    4150:	01 08 78    	mov.w     w1, [w0]

00004152 <.LSM71>:
    4152:	2e 00 90    	mov.w     [w14+4], w0
    4154:	40 00 90    	mov.w     [w0+8], w0
    4156:	80 00 eb    	clr.w     w1
    4158:	01 08 78    	mov.w     w1, [w0]

0000415a <.LSM72>:
    415a:	4e 00 90    	mov.w     [w14+8], w0
    415c:	70 fb 07    	rcall     0x383e <_timer_start>
    415e:	25 00 37    	bra       0x41aa <.L15>

00004160 <.L14>:
    4160:	2e 00 90    	mov.w     [w14+4], w0
    4162:	10 00 78    	mov.w     [w0], w0
    4164:	61 c0 21    	mov.w     #0x1c06, w1
    4166:	01 08 78    	mov.w     w1, [w0]

00004168 <.LSM74>:
    4168:	2e 00 90    	mov.w     [w14+4], w0
    416a:	10 00 90    	mov.w     [w0+2], w0
    416c:	f1 01 20    	mov.w     #0x1f, w1
    416e:	01 08 78    	mov.w     w1, [w0]

00004170 <.LSM75>:
    4170:	18 c0 b3    	mov.b     #0x1, w8
    4172:	02 40 22    	mov.w     #0x2400, w2
    4174:	43 37 24    	mov.w     #0x4374, w3
    4176:	5e 00 90    	mov.w     [w14+10], w0
    4178:	ee 00 90    	mov.w     [w14+12], w1
    417a:	03 e9 07    	rcall     0x1382 <___eqsf2>
    417c:	e0 0f 50    	sub.w     w0, #0x0, [w15]
    417e:	01 00 35    	bra       LT, 0x4182 <.L16>
    4180:	00 44 eb    	clr.b     w8

00004182 <.L16>:
    4182:	e0 4f 54    	sub.b     w8, #0x0, [w15]
    4184:	05 00 32    	bra       Z, 0x4190 <.L17>

00004186 <.LSM76>:
    4186:	2e 00 90    	mov.w     [w14+4], w0
    4188:	20 00 90    	mov.w     [w0+4], w0
    418a:	80 80 eb    	setm.w    w1
    418c:	01 08 78    	mov.w     w1, [w0]
    418e:	0d 00 37    	bra       0x41aa <.L15>

00004190 <.L17>:
    4190:	2e 00 90    	mov.w     [w14+4], w0
    4192:	20 04 90    	mov.w     [w0+4], w8
    4194:	5e 01 90    	mov.w     [w14+10], w2
    4196:	ee 01 90    	mov.w     [w14+12], w3
    4198:	00 40 22    	mov.w     #0x2400, w0
    419a:	41 b7 24    	mov.w     #0x4b74, w1
    419c:	b0 e8 07    	rcall     0x12fe <___divsf3>
    419e:	02 00 20    	mov.w     #0x0, w2
    41a0:	03 f8 23    	mov.w     #0x3f80, w3
    41a2:	4f e8 07    	rcall     0x1242 <___subsf3>
    41a4:	f2 e8 07    	rcall     0x138a <___fixunssfsi>
    41a6:	00 00 78    	mov.w     w0, w0
    41a8:	00 0c 78    	mov.w     w0, [w8]

000041aa <.L15>:
    41aa:	7e 00 90    	mov.w     [w14+14], w0
    41ac:	61 01 b8    	mul.uu    w0, #0x1, w2
    41ae:	2e 00 90    	mov.w     [w14+4], w0
    41b0:	20 00 90    	mov.w     [w0+4], w0
    41b2:	10 00 78    	mov.w     [w0], w0
    41b4:	01 00 20    	mov.w     #0x0, w1
    41b6:	00 9a b9    	mul.ss    w3, w0, w4
    41b8:	04 02 78    	mov.w     w4, w4
    41ba:	02 8b b9    	mul.ss    w1, w2, w6
    41bc:	86 02 78    	mov.w     w6, w5
    41be:	05 02 42    	add.w     w4, w5, w4
    41c0:	00 10 b8    	mul.uu    w2, w0, w0
    41c2:	01 02 42    	add.w     w4, w1, w4
    41c4:	84 00 78    	mov.w     w4, w1
    41c6:	00 8f be    	mov.d     w0, [w14]

000041c8 <.LSM79>:
    41c8:	2e 00 90    	mov.w     [w14+4], w0
    41ca:	30 00 90    	mov.w     [w0+6], w0
    41cc:	9e 00 90    	mov.w     [w14+2], w1
    41ce:	01 08 78    	mov.w     w1, [w0]

000041d0 <.LSM80>:
    41d0:	2e 00 90    	mov.w     [w14+4], w0
    41d2:	00 08 90    	mov.w     [w0+16], w0
    41d4:	e1 e8 23    	mov.w     #0x3e8e, w1
    41d6:	11 08 98    	mov.w     w1, [w0+18]

000041d8 <.LSM81>:
    41d8:	2e 00 90    	mov.w     [w14+4], w0
    41da:	00 08 90    	mov.w     [w0+16], w0
    41dc:	01 e6 23    	mov.w     #0x3e60, w1
    41de:	21 08 98    	mov.w     w1, [w0+20]
    41e0:	03 00 37    	bra       0x41e8 <.L9>

000041e2 <.L18>:
    41e2:	00 00 00    	nop       
    41e4:	01 00 37    	bra       0x41e8 <.L9>

000041e6 <.L19>:
    41e6:	00 00 00    	nop       

000041e8 <.L9>:
    41e8:	4f 04 78    	mov.w     [--w15], w8
    41ea:	00 80 fa    	ulnk      
    41ec:	00 00 06    	return    

000041ee <_oc_servo>:
    41ee:	14 00 fa    	lnk       #0x14
    41f0:	20 07 98    	mov.w     w0, [w14+4]
    41f2:	31 07 98    	mov.w     w1, [w14+6]
    41f4:	42 07 98    	mov.w     w2, [w14+8]
    41f6:	54 07 98    	mov.w     w4, [w14+10]
    41f8:	65 07 98    	mov.w     w5, [w14+12]
    41fa:	76 07 98    	mov.w     w6, [w14+14]
    41fc:	07 0f 98    	mov.w     w7, [w14+16]
    41fe:	13 0f 98    	mov.w     w3, [w14+18]

00004200 <.LSM86>:
    4200:	3e 00 90    	mov.w     [w14+6], w0
    4202:	60 00 90    	mov.w     [w0+12], w0
    4204:	e1 0f 40    	add.w     w0, #0x1, [w15]
    4206:	87 00 32    	bra       Z, 0x4316 <.L25>

00004208 <.LSM87>:
    4208:	3e 00 90    	mov.w     [w14+6], w0
    420a:	00 08 90    	mov.w     [w0+16], w0
    420c:	e0 0f 50    	sub.w     w0, #0x0, [w15]
    420e:	33 00 3a    	bra       NZ, 0x4276 <.L23>

00004210 <.LSM88>:
    4210:	2e 00 90    	mov.w     [w14+4], w0
    4212:	be 00 90    	mov.w     [w14+6], w1
    4214:	01 08 98    	mov.w     w1, [w0+16]

00004216 <.LSM89>:
    4216:	3e 00 90    	mov.w     [w14+6], w0
    4218:	ae 00 90    	mov.w     [w14+4], w1
    421a:	01 08 98    	mov.w     w1, [w0+16]

0000421c <.LSM90>:
    421c:	11 3a 80    	mov.w     0x742, w1
    421e:	f0 0b 20    	mov.w     #0xbf, w0
    4220:	00 81 60    	and.w     w1, w0, w2
    4222:	60 04 20    	mov.w     #0x46, w0
    4224:	71 05 20    	mov.w     #0x57, w1
    4226:	23 74 20    	mov.w     #0x742, w3
    4228:	80 49 78    	mov.b     w0, [w3]
    422a:	81 49 78    	mov.b     w1, [w3]
    422c:	82 49 78    	mov.b     w2, [w3]

0000422e <.LSM91>:
    422e:	3e 00 90    	mov.w     [w14+6], w0
    4230:	f0 00 90    	mov.w     [w0+14], w1
    4232:	3e 00 90    	mov.w     [w14+6], w0
    4234:	70 00 90    	mov.w     [w0+14], w0
    4236:	10 01 78    	mov.w     [w0], w2
    4238:	3e 00 90    	mov.w     [w14+6], w0
    423a:	20 48 90    	mov.b     [w0+10], w0
    423c:	00 80 fb    	ze        w0, w0
    423e:	f3 03 20    	mov.w     #0x3f, w3
    4240:	00 18 dd    	sl.w      w3, w0, w0
    4242:	00 80 ea    	com.w     w0, w0
    4244:	00 00 61    	and.w     w2, w0, w0
    4246:	80 08 78    	mov.w     w0, [w1]

00004248 <.LSM92>:
    4248:	3e 00 90    	mov.w     [w14+6], w0
    424a:	f0 00 90    	mov.w     [w0+14], w1
    424c:	3e 00 90    	mov.w     [w14+6], w0
    424e:	70 00 90    	mov.w     [w0+14], w0
    4250:	10 01 78    	mov.w     [w0], w2
    4252:	2e 00 90    	mov.w     [w14+4], w0
    4254:	d0 01 90    	mov.w     [w0+10], w3
    4256:	3e 00 90    	mov.w     [w14+6], w0
    4258:	20 48 90    	mov.b     [w0+10], w0
    425a:	00 80 fb    	ze        w0, w0
    425c:	00 18 dd    	sl.w      w3, w0, w0
    425e:	00 00 71    	ior.w     w2, w0, w0
    4260:	80 08 78    	mov.w     w0, [w1]

00004262 <.LSM93>:
    4262:	11 3a 80    	mov.w     0x742, w1
    4264:	00 04 20    	mov.w     #0x40, w0
    4266:	00 81 70    	ior.w     w1, w0, w2
    4268:	60 04 20    	mov.w     #0x46, w0
    426a:	71 05 20    	mov.w     #0x57, w1
    426c:	23 74 20    	mov.w     #0x742, w3
    426e:	80 49 78    	mov.b     w0, [w3]
    4270:	81 49 78    	mov.b     w1, [w3]
    4272:	82 49 78    	mov.b     w2, [w3]
    4274:	05 00 37    	bra       0x4280 <.L24>

00004276 <.L23>:
    4276:	3e 00 90    	mov.w     [w14+6], w0
    4278:	80 08 90    	mov.w     [w0+16], w1
    427a:	2e 00 90    	mov.w     [w14+4], w0
    427c:	80 8f 50    	sub.w     w1, w0, [w15]
    427e:	4d 00 3a    	bra       NZ, 0x431a <.L26>

00004280 <.L24>:
    4280:	4e 00 90    	mov.w     [w14+8], w0
    4282:	e0 0f 50    	sub.w     w0, #0x0, [w15]
    4284:	4b 00 32    	bra       Z, 0x431c <.L20>

00004286 <.LSM96>:
    4286:	02 40 22    	mov.w     #0x2400, w2
    4288:	43 b7 24    	mov.w     #0x4b74, w3
    428a:	7e 00 90    	mov.w     [w14+14], w0
    428c:	8e 08 90    	mov.w     [w14+16], w1
    428e:	ed e8 07    	rcall     0x146a <___mulsf3>
    4290:	7c e8 07    	rcall     0x138a <___fixunssfsi>
    4292:	80 00 78    	mov.w     w0, w1
    4294:	2e 00 90    	mov.w     [w14+4], w0
    4296:	61 00 98    	mov.w     w1, [w0+12]

00004298 <.LSM97>:
    4298:	7e 01 90    	mov.w     [w14+14], w2
    429a:	8e 09 90    	mov.w     [w14+16], w3
    429c:	3e b8 97    	mov.w     [w14-10], w0
    429e:	ce b8 97    	mov.w     [w14-8], w1
    42a0:	d0 e7 07    	rcall     0x1242 <___subsf3>
    42a2:	02 40 22    	mov.w     #0x2400, w2
    42a4:	43 b7 24    	mov.w     #0x4b74, w3
    42a6:	e1 e8 07    	rcall     0x146a <___mulsf3>
    42a8:	70 e8 07    	rcall     0x138a <___fixunssfsi>
    42aa:	80 00 78    	mov.w     w0, w1
    42ac:	2e 00 90    	mov.w     [w14+4], w0
    42ae:	71 00 98    	mov.w     w1, [w0+14]

000042b0 <.LSM98>:
    42b0:	2e 00 90    	mov.w     [w14+4], w0
    42b2:	10 00 78    	mov.w     [w0], w0
    42b4:	f1 c0 21    	mov.w     #0x1c0f, w1
    42b6:	01 08 78    	mov.w     w1, [w0]

000042b8 <.LSM99>:
    42b8:	2e 00 90    	mov.w     [w14+4], w0
    42ba:	10 00 90    	mov.w     [w0+2], w0
    42bc:	ce 00 90    	mov.w     [w14+8], w1
    42be:	71 01 90    	mov.w     [w1+14], w2
    42c0:	01 08 20    	mov.w     #0x80, w1
    42c2:	81 00 71    	ior.w     w2, w1, w1
    42c4:	01 08 78    	mov.w     w1, [w0]

000042c6 <.LSM100>:
    42c6:	2e 00 90    	mov.w     [w14+4], w0
    42c8:	30 00 90    	mov.w     [w0+6], w0
    42ca:	11 00 20    	mov.w     #0x1, w1
    42cc:	01 08 78    	mov.w     w1, [w0]

000042ce <.LSM101>:
    42ce:	1e 08 90    	mov.w     [w14+18], w0
    42d0:	61 01 b8    	mul.uu    w0, #0x1, w2
    42d2:	2e 00 90    	mov.w     [w14+4], w0
    42d4:	70 00 90    	mov.w     [w0+14], w0
    42d6:	01 00 20    	mov.w     #0x0, w1
    42d8:	00 9a b9    	mul.ss    w3, w0, w4
    42da:	04 02 78    	mov.w     w4, w4
    42dc:	02 8b b9    	mul.ss    w1, w2, w6
    42de:	86 02 78    	mov.w     w6, w5
    42e0:	05 02 42    	add.w     w4, w5, w4
    42e2:	00 10 b8    	mul.uu    w2, w0, w0
    42e4:	01 02 42    	add.w     w4, w1, w4
    42e6:	84 00 78    	mov.w     w4, w1
    42e8:	00 8f be    	mov.d     w0, [w14]

000042ea <.LSM102>:
    42ea:	2e 00 90    	mov.w     [w14+4], w0
    42ec:	20 00 90    	mov.w     [w0+4], w0
    42ee:	ae 00 90    	mov.w     [w14+4], w1
    42f0:	61 01 90    	mov.w     [w1+12], w2
    42f2:	9e 00 90    	mov.w     [w14+2], w1
    42f4:	81 00 41    	add.w     w2, w1, w1
    42f6:	01 08 78    	mov.w     w1, [w0]

000042f8 <.LSM103>:
    42f8:	5e 01 90    	mov.w     [w14+10], w2
    42fa:	ee 01 90    	mov.w     [w14+12], w3
    42fc:	4e 00 90    	mov.w     [w14+8], w0
    42fe:	d0 f9 07    	rcall     0x36a0 <_timer_setPeriod>

00004300 <.LSM104>:
    4300:	4e 00 90    	mov.w     [w14+8], w0
    4302:	9d fa 07    	rcall     0x383e <_timer_start>

00004304 <.LSM105>:
    4304:	2e 00 90    	mov.w     [w14+4], w0
    4306:	00 08 90    	mov.w     [w0+16], w0
    4308:	81 ef 23    	mov.w     #0x3ef8, w1
    430a:	11 08 98    	mov.w     w1, [w0+18]

0000430c <.LSM106>:
    430c:	2e 00 90    	mov.w     [w14+4], w0
    430e:	00 08 90    	mov.w     [w0+16], w0
    4310:	61 ec 23    	mov.w     #0x3ec6, w1
    4312:	21 08 98    	mov.w     w1, [w0+20]
    4314:	03 00 37    	bra       0x431c <.L20>

00004316 <.L25>:
    4316:	00 00 00    	nop       
    4318:	01 00 37    	bra       0x431c <.L20>

0000431a <.L26>:
    431a:	00 00 00    	nop       

0000431c <.L20>:
    431c:	00 80 fa    	ulnk      
    431e:	00 00 06    	return    

00004320 <_init_ui>:
    4320:	00 00 fa    	lnk       #0x0

00004322 <.LSM1>:
    4322:	74 c0 b3    	mov.b     #0x7, w4
    4324:	63 4e 20    	mov.w     #0x4e6, w3
    4326:	82 2d 20    	mov.w     #0x2d8, w2
    4328:	a1 2d 20    	mov.w     #0x2da, w1
    432a:	80 be 20    	mov.w     #0xbe8, w0
    432c:	20 00 07    	rcall     0x436e <_led_init>

0000432e <.LSM2>:
    432e:	00 42 eb    	clr.b     w4
    4330:	a3 4e 20    	mov.w     #0x4ea, w3
    4332:	82 2e 20    	mov.w     #0x2e8, w2
    4334:	a1 2e 20    	mov.w     #0x2ea, w1
    4336:	00 bf 20    	mov.w     #0xbf0, w0
    4338:	1a 00 07    	rcall     0x436e <_led_init>

0000433a <.LSM3>:
    433a:	14 c0 b3    	mov.b     #0x1, w4
    433c:	a3 4e 20    	mov.w     #0x4ea, w3
    433e:	82 2e 20    	mov.w     #0x2e8, w2
    4340:	a1 2e 20    	mov.w     #0x2ea, w1
    4342:	80 bf 20    	mov.w     #0xbf8, w0
    4344:	14 00 07    	rcall     0x436e <_led_init>

00004346 <.LSM4>:
    4346:	f4 c0 b3    	mov.b     #0xf, w4
    4348:	43 4e 20    	mov.w     #0x4e4, w3
    434a:	02 2d 20    	mov.w     #0x2d0, w2
    434c:	21 2d 20    	mov.w     #0x2d2, w1
    434e:	00 c0 20    	mov.w     #0xc00, w0
    4350:	ac 00 07    	rcall     0x44aa <_sw_init>

00004352 <.LSM5>:
    4352:	c4 c0 b3    	mov.b     #0xc, w4
    4354:	43 4e 20    	mov.w     #0x4e4, w3
    4356:	02 2d 20    	mov.w     #0x2d0, w2
    4358:	21 2d 20    	mov.w     #0x2d2, w1
    435a:	80 c0 20    	mov.w     #0xc08, w0
    435c:	a6 00 07    	rcall     0x44aa <_sw_init>

0000435e <.LSM6>:
    435e:	c4 c0 b3    	mov.b     #0xc, w4
    4360:	23 4e 20    	mov.w     #0x4e2, w3
    4362:	82 2c 20    	mov.w     #0x2c8, w2
    4364:	a1 2c 20    	mov.w     #0x2ca, w1
    4366:	00 c1 20    	mov.w     #0xc10, w0
    4368:	a0 00 07    	rcall     0x44aa <_sw_init>

0000436a <.LSM7>:
    436a:	00 80 fa    	ulnk      
    436c:	00 00 06    	return    

0000436e <_led_init>:
    436e:	0a 00 fa    	lnk       #0xa
    4370:	00 0f 78    	mov.w     w0, [w14]
    4372:	11 07 98    	mov.w     w1, [w14+2]
    4374:	22 07 98    	mov.w     w2, [w14+4]
    4376:	33 07 98    	mov.w     w3, [w14+6]
    4378:	04 4f 98    	mov.b     w4, [w14+8]

0000437a <.LSM9>:
    437a:	1e 00 78    	mov.w     [w14], w0
    437c:	9e 00 90    	mov.w     [w14+2], w1
    437e:	01 08 78    	mov.w     w1, [w0]

00004380 <.LSM10>:
    4380:	1e 00 78    	mov.w     [w14], w0
    4382:	ae 00 90    	mov.w     [w14+4], w1
    4384:	11 00 98    	mov.w     w1, [w0+2]

00004386 <.LSM11>:
    4386:	1e 00 78    	mov.w     [w14], w0
    4388:	be 00 90    	mov.w     [w14+6], w1
    438a:	21 00 98    	mov.w     w1, [w0+4]

0000438c <.LSM12>:
    438c:	1e 00 78    	mov.w     [w14], w0
    438e:	8e 48 90    	mov.b     [w14+8], w1
    4390:	61 40 98    	mov.b     w1, [w0+6]

00004392 <.LSM13>:
    4392:	1e 00 78    	mov.w     [w14], w0
    4394:	a0 00 90    	mov.w     [w0+4], w1
    4396:	1e 00 78    	mov.w     [w14], w0
    4398:	20 00 90    	mov.w     [w0+4], w0
    439a:	10 01 78    	mov.w     [w0], w2
    439c:	1e 00 78    	mov.w     [w14], w0
    439e:	60 40 90    	mov.b     [w0+6], w0
    43a0:	00 80 fb    	ze        w0, w0
    43a2:	13 00 20    	mov.w     #0x1, w3
    43a4:	00 18 dd    	sl.w      w3, w0, w0
    43a6:	00 80 ea    	com.w     w0, w0
    43a8:	00 00 61    	and.w     w2, w0, w0
    43aa:	80 08 78    	mov.w     w0, [w1]

000043ac <.LSM14>:
    43ac:	1e 00 78    	mov.w     [w14], w0
    43ae:	90 00 78    	mov.w     [w0], w1
    43b0:	1e 00 78    	mov.w     [w14], w0
    43b2:	10 00 78    	mov.w     [w0], w0
    43b4:	10 01 78    	mov.w     [w0], w2
    43b6:	1e 00 78    	mov.w     [w14], w0
    43b8:	60 40 90    	mov.b     [w0+6], w0
    43ba:	00 80 fb    	ze        w0, w0
    43bc:	13 00 20    	mov.w     #0x1, w3
    43be:	00 18 dd    	sl.w      w3, w0, w0
    43c0:	00 80 ea    	com.w     w0, w0
    43c2:	00 00 61    	and.w     w2, w0, w0
    43c4:	80 08 78    	mov.w     w0, [w1]

000043c6 <.LSM15>:
    43c6:	1e 00 78    	mov.w     [w14], w0
    43c8:	90 00 90    	mov.w     [w0+2], w1
    43ca:	1e 00 78    	mov.w     [w14], w0
    43cc:	10 00 90    	mov.w     [w0+2], w0
    43ce:	10 01 78    	mov.w     [w0], w2
    43d0:	1e 00 78    	mov.w     [w14], w0
    43d2:	60 40 90    	mov.b     [w0+6], w0
    43d4:	00 80 fb    	ze        w0, w0
    43d6:	13 00 20    	mov.w     #0x1, w3
    43d8:	00 18 dd    	sl.w      w3, w0, w0
    43da:	00 80 ea    	com.w     w0, w0
    43dc:	00 00 61    	and.w     w2, w0, w0
    43de:	80 08 78    	mov.w     w0, [w1]

000043e0 <.LSM16>:
    43e0:	00 80 fa    	ulnk      
    43e2:	00 00 06    	return    

000043e4 <_led_on>:
    43e4:	02 00 fa    	lnk       #0x2
    43e6:	00 0f 78    	mov.w     w0, [w14]

000043e8 <.LSM18>:
    43e8:	1e 00 78    	mov.w     [w14], w0
    43ea:	90 00 78    	mov.w     [w0], w1
    43ec:	1e 00 78    	mov.w     [w14], w0
    43ee:	10 00 78    	mov.w     [w0], w0
    43f0:	10 01 78    	mov.w     [w0], w2
    43f2:	1e 00 78    	mov.w     [w14], w0
    43f4:	60 40 90    	mov.b     [w0+6], w0
    43f6:	00 80 fb    	ze        w0, w0
    43f8:	13 00 20    	mov.w     #0x1, w3
    43fa:	00 18 dd    	sl.w      w3, w0, w0
    43fc:	00 00 71    	ior.w     w2, w0, w0
    43fe:	80 08 78    	mov.w     w0, [w1]

00004400 <.LSM19>:
    4400:	00 80 fa    	ulnk      
    4402:	00 00 06    	return    

00004404 <_led_off>:
    4404:	02 00 fa    	lnk       #0x2
    4406:	00 0f 78    	mov.w     w0, [w14]

00004408 <.LSM21>:
    4408:	1e 00 78    	mov.w     [w14], w0
    440a:	90 00 78    	mov.w     [w0], w1
    440c:	1e 00 78    	mov.w     [w14], w0
    440e:	10 00 78    	mov.w     [w0], w0
    4410:	10 01 78    	mov.w     [w0], w2
    4412:	1e 00 78    	mov.w     [w14], w0
    4414:	60 40 90    	mov.b     [w0+6], w0
    4416:	00 80 fb    	ze        w0, w0
    4418:	13 00 20    	mov.w     #0x1, w3
    441a:	00 18 dd    	sl.w      w3, w0, w0
    441c:	00 80 ea    	com.w     w0, w0
    441e:	00 00 61    	and.w     w2, w0, w0
    4420:	80 08 78    	mov.w     w0, [w1]

00004422 <.LSM22>:
    4422:	00 80 fa    	ulnk      
    4424:	00 00 06    	return    

00004426 <_led_toggle>:
    4426:	02 00 fa    	lnk       #0x2
    4428:	00 0f 78    	mov.w     w0, [w14]

0000442a <.LSM24>:
    442a:	1e 00 78    	mov.w     [w14], w0
    442c:	90 00 78    	mov.w     [w0], w1
    442e:	1e 00 78    	mov.w     [w14], w0
    4430:	10 00 78    	mov.w     [w0], w0
    4432:	10 01 78    	mov.w     [w0], w2
    4434:	1e 00 78    	mov.w     [w14], w0
    4436:	60 40 90    	mov.b     [w0+6], w0
    4438:	00 80 fb    	ze        w0, w0
    443a:	13 00 20    	mov.w     #0x1, w3
    443c:	00 18 dd    	sl.w      w3, w0, w0
    443e:	00 00 69    	xor.w     w2, w0, w0
    4440:	80 08 78    	mov.w     w0, [w1]

00004442 <.LSM25>:
    4442:	00 80 fa    	ulnk      
    4444:	00 00 06    	return    

00004446 <_led_write>:
    4446:	04 00 fa    	lnk       #0x4
    4448:	00 0f 78    	mov.w     w0, [w14]
    444a:	11 07 98    	mov.w     w1, [w14+2]

0000444c <.LSM27>:
    444c:	1e 00 90    	mov.w     [w14+2], w0
    444e:	e0 0f 50    	sub.w     w0, #0x0, [w15]
    4450:	0d 00 32    	bra       Z, 0x446c <.L7>

00004452 <.LSM28>:
    4452:	1e 00 78    	mov.w     [w14], w0
    4454:	90 00 78    	mov.w     [w0], w1
    4456:	1e 00 78    	mov.w     [w14], w0
    4458:	10 00 78    	mov.w     [w0], w0
    445a:	10 01 78    	mov.w     [w0], w2
    445c:	1e 00 78    	mov.w     [w14], w0
    445e:	60 40 90    	mov.b     [w0+6], w0
    4460:	00 80 fb    	ze        w0, w0
    4462:	13 00 20    	mov.w     #0x1, w3
    4464:	00 18 dd    	sl.w      w3, w0, w0
    4466:	00 00 71    	ior.w     w2, w0, w0
    4468:	80 08 78    	mov.w     w0, [w1]
    446a:	0d 00 37    	bra       0x4486 <.L6>

0000446c <.L7>:
    446c:	1e 00 78    	mov.w     [w14], w0
    446e:	90 00 78    	mov.w     [w0], w1
    4470:	1e 00 78    	mov.w     [w14], w0
    4472:	10 00 78    	mov.w     [w0], w0
    4474:	10 01 78    	mov.w     [w0], w2
    4476:	1e 00 78    	mov.w     [w14], w0
    4478:	60 40 90    	mov.b     [w0+6], w0
    447a:	00 80 fb    	ze        w0, w0
    447c:	13 00 20    	mov.w     #0x1, w3
    447e:	00 18 dd    	sl.w      w3, w0, w0
    4480:	00 80 ea    	com.w     w0, w0
    4482:	00 00 61    	and.w     w2, w0, w0
    4484:	80 08 78    	mov.w     w0, [w1]

00004486 <.L6>:
    4486:	00 80 fa    	ulnk      
    4488:	00 00 06    	return    

0000448a <_led_read>:
    448a:	02 00 fa    	lnk       #0x2
    448c:	00 0f 78    	mov.w     w0, [w14]

0000448e <.LSM32>:
    448e:	1e 00 78    	mov.w     [w14], w0
    4490:	10 00 78    	mov.w     [w0], w0
    4492:	90 00 78    	mov.w     [w0], w1
    4494:	1e 00 78    	mov.w     [w14], w0
    4496:	60 40 90    	mov.b     [w0+6], w0
    4498:	00 80 fb    	ze        w0, w0
    449a:	12 00 20    	mov.w     #0x1, w2
    449c:	00 10 dd    	sl.w      w2, w0, w0
    449e:	80 80 60    	and.w     w1, w0, w1
    44a0:	01 00 ea    	neg.w     w1, w0
    44a2:	01 00 70    	ior.w     w0, w1, w0
    44a4:	4f 00 de    	lsr.w     w0, #0xf, w0

000044a6 <.LSM33>:
    44a6:	00 80 fa    	ulnk      
    44a8:	00 00 06    	return    

000044aa <_sw_init>:
    44aa:	0a 00 fa    	lnk       #0xa
    44ac:	00 0f 78    	mov.w     w0, [w14]
    44ae:	11 07 98    	mov.w     w1, [w14+2]
    44b0:	22 07 98    	mov.w     w2, [w14+4]
    44b2:	33 07 98    	mov.w     w3, [w14+6]
    44b4:	04 4f 98    	mov.b     w4, [w14+8]

000044b6 <.LSM35>:
    44b6:	1e 00 78    	mov.w     [w14], w0
    44b8:	9e 00 90    	mov.w     [w14+2], w1
    44ba:	01 08 78    	mov.w     w1, [w0]

000044bc <.LSM36>:
    44bc:	1e 00 78    	mov.w     [w14], w0
    44be:	ae 00 90    	mov.w     [w14+4], w1
    44c0:	11 00 98    	mov.w     w1, [w0+2]

000044c2 <.LSM37>:
    44c2:	1e 00 78    	mov.w     [w14], w0
    44c4:	be 00 90    	mov.w     [w14+6], w1
    44c6:	21 00 98    	mov.w     w1, [w0+4]

000044c8 <.LSM38>:
    44c8:	1e 00 78    	mov.w     [w14], w0
    44ca:	8e 48 90    	mov.b     [w14+8], w1
    44cc:	61 40 98    	mov.b     w1, [w0+6]

000044ce <.LSM39>:
    44ce:	1e 00 78    	mov.w     [w14], w0
    44d0:	a0 00 90    	mov.w     [w0+4], w1
    44d2:	1e 00 78    	mov.w     [w14], w0
    44d4:	20 00 90    	mov.w     [w0+4], w0
    44d6:	10 01 78    	mov.w     [w0], w2
    44d8:	1e 00 78    	mov.w     [w14], w0
    44da:	60 40 90    	mov.b     [w0+6], w0
    44dc:	00 80 fb    	ze        w0, w0
    44de:	13 00 20    	mov.w     #0x1, w3
    44e0:	00 18 dd    	sl.w      w3, w0, w0
    44e2:	00 80 ea    	com.w     w0, w0
    44e4:	00 00 61    	and.w     w2, w0, w0
    44e6:	80 08 78    	mov.w     w0, [w1]

000044e8 <.LSM40>:
    44e8:	1e 00 78    	mov.w     [w14], w0
    44ea:	90 00 90    	mov.w     [w0+2], w1
    44ec:	1e 00 78    	mov.w     [w14], w0
    44ee:	10 00 90    	mov.w     [w0+2], w0
    44f0:	10 01 78    	mov.w     [w0], w2
    44f2:	1e 00 78    	mov.w     [w14], w0
    44f4:	60 40 90    	mov.b     [w0+6], w0
    44f6:	00 80 fb    	ze        w0, w0
    44f8:	13 00 20    	mov.w     #0x1, w3
    44fa:	00 18 dd    	sl.w      w3, w0, w0
    44fc:	00 00 71    	ior.w     w2, w0, w0
    44fe:	80 08 78    	mov.w     w0, [w1]

00004500 <.LSM41>:
    4500:	00 80 fa    	ulnk      
    4502:	00 00 06    	return    

00004504 <_sw_read>:
    4504:	02 00 fa    	lnk       #0x2
    4506:	00 0f 78    	mov.w     w0, [w14]

00004508 <.LSM43>:
    4508:	1e 00 78    	mov.w     [w14], w0
    450a:	10 00 78    	mov.w     [w0], w0
    450c:	90 00 78    	mov.w     [w0], w1
    450e:	1e 00 78    	mov.w     [w14], w0
    4510:	60 40 90    	mov.b     [w0+6], w0
    4512:	00 80 fb    	ze        w0, w0
    4514:	12 00 20    	mov.w     #0x1, w2
    4516:	00 10 dd    	sl.w      w2, w0, w0
    4518:	80 80 60    	and.w     w1, w0, w1
    451a:	01 00 ea    	neg.w     w1, w0
    451c:	01 00 70    	ior.w     w0, w1, w0
    451e:	4f 00 de    	lsr.w     w0, #0xf, w0

00004520 <.LSM44>:
    4520:	00 80 fa    	ulnk      
    4522:	00 00 06    	return    
Disassembly of section .dinit:

00004524 <.dinit>:
    4524:	18 0c 00    	nop       
    4526:	2c 00 00    	nop       
    4528:	80 00 00    	nop       
    452a:	7a 0b 00    	nop       
    452c:	6e 00 00    	nop       
    452e:	80 00 00    	nop       
    4530:	44 0c 00    	nop       
    4532:	10 00 00    	nop       
    4534:	82 00 00    	nop       
    4536:	bd 37 86    	mov.w     0xc6f6, w13
    4538:	33 bd 37    	bra       0xffffbfa0
    453a:	06 35 bd    	subr.w    0x1506
    453c:	37 86 36    	bra       LEU, 0xffff51ac
    453e:	bd 37 86    	mov.w     0xc6f6, w13
    4540:	37 00 00    	nop       
    4542:	e8 0b 00    	nop       
    4544:	30 00 00    	nop       
    4546:	80 00 00    	nop       
    4548:	b8 09 00    	nop       
    454a:	20 01 00    	nop       
    454c:	80 00 00    	nop       
    454e:	00 08 00    	nop       
    4550:	b8 01 00    	nop       
    4552:	80 00 00    	nop       
    4554:	d8 0a 00    	nop       
    4556:	a2 00 00    	nop       
    4558:	80 00 00    	nop       
    455a:	44 0d 00    	nop       
    455c:	06 00 00    	nop       
    455e:	80 00 00    	nop       
    4560:	1e 0d 00    	nop       
    4562:	26 00 00    	nop       
    4564:	82 00 00    	nop       
    4566:	45 0d 00    	nop       
    4568:	00 45 0d    	bra       OB, 0xcf6a
    456a:	09 00 00    	nop       
    456c:	00 02 00    	nop       
    456e:	47 0d 00    	nop       
    4570:	00 47 0d    	bra       OB, 0xd372
    4572:	0e 02 01    	.pword 0x01020e
	...
    457a:	06 02 02    	call      0x206 <__DEFAULT_VECTOR-0xf06>
    457c:	00 00 00 
    457e:	1e 0d 00    	nop       
    4580:	4a 0d 00    	nop       
    4582:	02 00 00    	nop       
    4584:	80 00 00    	nop       
    4586:	f4 0c 00    	nop       
    4588:	2a 00 00    	nop       
    458a:	82 00 00    	nop       
    458c:	30 31 32    	bra       Z, 0xa7ee
    458e:	33 34 35    	bra       LT, 0xadf6
    4590:	36 37 38    	bra       NOV, 0xb3fe
    4592:	39 41 42    	add.b     w4, [w9++], w2
    4594:	43 44 45    	add.b     w10, [--w3], w8
    4596:	46 00 30    	bra       OV, 0x4624 <_main>
    4598:	31 32 33    	bra       N, 0xa9fc
    459a:	34 35 36    	bra       LEU, 0xb004
    459c:	37 38 39    	bra       NC, 0xb60c
    459e:	61 62 63    	and.b     w6, #0x1, [--w4]
    45a0:	64 65 66    	and.b     w12, #0x4, [--w10]
    45a2:	00 28 6e    	xor.w     w12, w0, [++w0]
    45a4:	75 6c 6c    	xor.b     w8, #0x15, [++w8]
    45a6:	29 00 00    	nop       
    45a8:	54 0c 00    	nop       
    45aa:	a0 00 00    	nop       
    45ac:	82 00 00    	nop       
    45ae:	01 00 00    	nop       
    45b0:	00 00 00    	nop       
    45b2:	00 00 0a    	.pword 0x0a0000
	...
    45b8:	00 64 00    	nop       
	...
    45be:	e8 03 00    	nop       
    45c0:	00 00 00    	nop       
    45c2:	00 00 10    	subr.w    w0, w0, w0
    45c4:	27 00 00    	nop       
    45c6:	00 00 00    	nop       
    45c8:	00 a0 86    	mov.w     0xd400, w0
    45ca:	01 00 00    	nop       
    45cc:	00 00 00    	nop       
    45ce:	40 42 0f    	bra       SB, 0xca50
    45d0:	00 00 00    	nop       
    45d2:	00 00 80    	mov.w     0x0, w0
    45d4:	96 98 00    	nop       
    45d6:	00 00 00    	nop       
    45d8:	00 00 e1    	cp.w      w0, w0
    45da:	f5 05 00    	nop       
    45dc:	00 00 00    	nop       
    45de:	00 ca 9a    	mov.b     w0, [w4+328]
    45e0:	3b 00 00    	nop       
    45e2:	00 00 00    	nop       
    45e4:	e4 0b 54    	sub.w     w8, #0x4, [w7]
    45e6:	02 00 00    	nop       
    45e8:	00 00 e8    	inc.w     w0, w0
    45ea:	76 48 17    	subr.b    w14, #0x16, [w0]
    45ec:	00 00 00    	nop       
    45ee:	00 10 a5    	btst.c    w0, w2
    45f0:	d4 e8 00    	nop       
    45f2:	00 00 00    	nop       
    45f4:	a0 72 4e    	.pword 0x4e72a0
    45f6:	18 09 00    	nop       
    45f8:	00 00 40    	add.w     w0, w0, w0
    45fa:	7a 10 f3    	.pword 0xf3107a
    45fc:	5a 00 00    	nop       
    45fe:	00 80 c6    	mac       w6 * w7, B, [w8], w4, [w10], w4, w13
    4600:	a4 7e 8d    	mov.w     w4, 0xafd4
    4602:	03 00 00    	nop       
    4604:	00 c1 6f    	xor.b     w15, w0, w2
    4606:	f2 86 23    	mov.w     #0x386f, w2
    4608:	00 00 00    	nop       
    460a:	8a 5d 78    	mov.b     w10, [w11++]
    460c:	45 63 01    	.pword 0x016345
    460e:	00 00 64    	and.w     w8, w0, w0
    4610:	a7 b3 b6    	xor.w     0x13a7
    4612:	e0 0d 00    	nop       
    4614:	00 e8 89    	mov.w     w0, 0x3d00
    4616:	04 23 c7    	movsac    A, [w9+w12], w6, [w10]+=2, w4, w13
    4618:	8a 00 00    	nop       
    461a:	4c 0d 00    	nop       
    461c:	02 00 00    	nop       
    461e:	82 00 00    	nop       
    4620:	01 00 00    	nop       
    4622:	00 00 00    	nop       
Disassembly of section .text:

00004624 <_main>:
    4624:	00 00 fa    	lnk       #0x0

00004626 <.LSM1>:
    4626:	00 10 20    	mov.w     #0x100, w0
    4628:	20 3a 88    	mov.w     w0, 0x744

0000462a <.LSM2>:
    462a:	7a fe 07    	rcall     0x4320 <_init_ui>

0000462c <.LSM3>:
    462c:	ce f7 07    	rcall     0x35ca <_init_timer>

0000462e <.LSM4>:
    462e:	f6 f9 07    	rcall     0x3a1c <_init_pin>

00004630 <.LSM5>:
    4630:	3f f2 07    	rcall     0x2ab0 <_init_uart>

00004632 <.LSM6>:
    4632:	80 fc 07    	rcall     0x3f34 <_init_oc>

00004634 <.LSM7>:
    4634:	90 b9 2b    	mov.w     #0xbb99, w0
    4636:	61 b1 23    	mov.w     #0x3b16, w1
    4638:	80 9f be    	mov.d     w0, [w15++]
    463a:	63 66 2e    	mov.w     #0xe666, w3
    463c:	46 03 28    	mov.w     #0x8034, w6
    463e:	77 a3 23    	mov.w     #0x3a37, w7
    4640:	a4 70 2d    	mov.w     #0xd70a, w4
    4642:	35 ca 23    	mov.w     #0x3ca3, w5
    4644:	a2 b7 20    	mov.w     #0xb7a, w2
    4646:	c1 82 20    	mov.w     #0x82c, w1
    4648:	80 ad 20    	mov.w     #0xad8, w0
    464a:	d1 fd 07    	rcall     0x41ee <_oc_servo>
    464c:	e4 87 57    	sub.w     w15, #0x4, w15

0000464e <.LSM8>:
    464e:	90 b9 2b    	mov.w     #0xbb99, w0
    4650:	61 b1 23    	mov.w     #0x3b16, w1
    4652:	80 9f be    	mov.d     w0, [w15++]
    4654:	63 66 2e    	mov.w     #0xe666, w3
    4656:	46 03 28    	mov.w     #0x8034, w6
    4658:	77 a3 23    	mov.w     #0x3a37, w7
    465a:	a4 70 2d    	mov.w     #0xd70a, w4
    465c:	35 ca 23    	mov.w     #0x3ca3, w5
    465e:	02 b9 20    	mov.w     #0xb90, w2
    4660:	21 84 20    	mov.w     #0x842, w1
    4662:	a0 ae 20    	mov.w     #0xaea, w0
    4664:	c4 fd 07    	rcall     0x41ee <_oc_servo>
    4666:	e4 87 57    	sub.w     w15, #0x4, w15

00004668 <.LSM9>:
    4668:	60 6d 2a    	mov.w     #0xa6d6, w0
    466a:	9c e7 07    	rcall     0x15a4 <_puts>

0000466c <.LSM10>:
    466c:	30 6e 2a    	mov.w     #0xa6e3, w0
    466e:	9a e7 07    	rcall     0x15a4 <_puts>

00004670 <.L2>:
    4670:	82 02 20    	mov.w     #0x28, w2
    4672:	81 c1 20    	mov.w     #0xc18, w1
    4674:	80 9b 20    	mov.w     #0x9b8, w0
    4676:	90 f6 07    	rcall     0x3398 <_uart_gets>

00004678 <.LSM12>:
    4678:	80 c1 20    	mov.w     #0xc18, w0
    467a:	80 1f 78    	mov.w     w0, [w15++]
    467c:	10 70 2a    	mov.w     #0xa701, w0
    467e:	80 1f 78    	mov.w     w0, [w15++]
    4680:	52 e9 07    	rcall     0x1926 <__printf_cdnopsuxX>
    4682:	e4 87 57    	sub.w     w15, #0x4, w15

00004684 <.LSM13>:
    4684:	80 c1 20    	mov.w     #0xc18, w0
    4686:	21 c4 20    	mov.w     #0xc42, w1
    4688:	81 1f 78    	mov.w     w1, [w15++]
    468a:	01 c4 20    	mov.w     #0xc40, w1
    468c:	81 1f 78    	mov.w     w1, [w15++]
    468e:	01 71 2a    	mov.w     #0xa710, w1
    4690:	81 1f 78    	mov.w     w1, [w15++]
    4692:	92 e7 07    	rcall     0x15b8 <__sscanf_cdnopuxX>
    4694:	e6 87 57    	sub.w     w15, #0x6, w15

00004696 <.LSM14>:
    4696:	00 62 80    	mov.w     0xc40, w0
    4698:	80 1f 78    	mov.w     w0, [w15++]
    469a:	60 71 2a    	mov.w     #0xa716, w0
    469c:	80 1f 78    	mov.w     w0, [w15++]
    469e:	43 e9 07    	rcall     0x1926 <__printf_cdnopsuxX>
    46a0:	e4 87 57    	sub.w     w15, #0x4, w15

000046a2 <.LSM15>:
    46a2:	10 62 80    	mov.w     0xc42, w0
    46a4:	80 1f 78    	mov.w     w0, [w15++]
    46a6:	20 72 2a    	mov.w     #0xa722, w0
    46a8:	80 1f 78    	mov.w     w0, [w15++]
    46aa:	3d e9 07    	rcall     0x1926 <__printf_cdnopsuxX>
    46ac:	e4 87 57    	sub.w     w15, #0x4, w15

000046ae <.LSM16>:
    46ae:	00 62 80    	mov.w     0xc40, w0
    46b0:	80 00 78    	mov.w     w0, w1
    46b2:	c0 82 20    	mov.w     #0x82c, w0
    46b4:	b9 fb 07    	rcall     0x3e28 <_pin_write>

000046b6 <.LSM17>:
    46b6:	10 62 80    	mov.w     0xc42, w0
    46b8:	80 00 78    	mov.w     w0, w1
    46ba:	20 84 20    	mov.w     #0x842, w0
    46bc:	b5 fb 07    	rcall     0x3e28 <_pin_write>

000046be <.LSM18>:
    46be:	d8 ff 37    	bra       0x4670 <.L2>
Disassembly of section .isr:

000046c0 <__DefaultInterrupt>:
    46c0:	00 40 da    	.pword 0xda4000
    46c2:	00 00 fe    	reset     
